	.file	"susan.c"
	.text
	.section	.rodata
	.align 8
.LC0:
	.string	"Usage: susan <in.pgm> <out.pgm> [options]\n"
.LC1:
	.string	"-s : Smoothing mode (default)"
.LC2:
	.string	"-e : Edges mode"
.LC3:
	.string	"-c : Corners mode\n"
	.align 8
.LC4:
	.string	"See source code for more information about setting the thresholds"
	.align 8
.LC5:
	.string	"-t <thresh> : Brightness threshold, all modes (default=20)"
	.align 8
.LC6:
	.string	"-d <thresh> : Distance threshold, smoothing mode, (default=4) (use next option instead for flat 3x3 mask)"
	.align 8
.LC7:
	.string	"-3 : Use flat 3x3 mask, edges or smoothing mode"
	.align 8
.LC8:
	.string	"-n : No post-processing on the binary edge map (runs much faster); edges mode"
	.align 8
.LC9:
	.string	"-q : Use faster (and usually stabler) corner mode; edge-like corner suppression not carried out; corners mode"
	.align 8
.LC10:
	.string	"-b : Mark corners/edges with single black points instead of black with white border; corners or edges mode"
	.align 8
.LC11:
	.string	"-p : Output initial enhancement image only; corners or edges mode (default is edges mode)"
	.align 8
.LC12:
	.string	"\nSUSAN Version 2l (C) 1995-1997 Stephen Smith, DRA UK. steve@fmrib.ox.ac.uk"
	.text
	.globl	usage
	.type	usage, @function
usage:
.LFB5:
	.cfi_startproc
	pushq	%rbp
	.cfi_def_cfa_offset 16
	.cfi_offset 6, -16
	movq	%rsp, %rbp
	.cfi_def_cfa_register 6
	leaq	.LC0(%rip), %rdi
	call	puts@PLT
	leaq	.LC1(%rip), %rdi
	call	puts@PLT
	leaq	.LC2(%rip), %rdi
	call	puts@PLT
	leaq	.LC3(%rip), %rdi
	call	puts@PLT
	leaq	.LC4(%rip), %rdi
	call	puts@PLT
	leaq	.LC5(%rip), %rdi
	call	puts@PLT
	leaq	.LC6(%rip), %rdi
	call	puts@PLT
	leaq	.LC7(%rip), %rdi
	call	puts@PLT
	leaq	.LC8(%rip), %rdi
	call	puts@PLT
	leaq	.LC9(%rip), %rdi
	call	puts@PLT
	leaq	.LC10(%rip), %rdi
	call	puts@PLT
	leaq	.LC11(%rip), %rdi
	call	puts@PLT
	leaq	.LC12(%rip), %rdi
	call	puts@PLT
	movl	$0, %edi
	call	exit@PLT
	.cfi_endproc
.LFE5:
	.size	usage, .-usage
	.section	.rodata
.LC13:
	.string	"is"
.LC14:
	.string	"Image %s not binary PGM.\n"
	.text
	.globl	getint
	.type	getint, @function
getint:
.LFB6:
	.cfi_startproc
	pushq	%rbp
	.cfi_def_cfa_offset 16
	.cfi_offset 6, -16
	movq	%rsp, %rbp
	.cfi_def_cfa_register 6
	subq	$10032, %rsp
	movq	%rdi, -10024(%rbp)
	movq	-10024(%rbp), %rax
	movq	%rax, %rdi
	call	_IO_getc@PLT
	movl	%eax, -4(%rbp)
.L7:
	cmpl	$35, -4(%rbp)
	jne	.L3
	movq	-10024(%rbp), %rdx
	leaq	-10016(%rbp), %rax
	movl	$9000, %esi
	movq	%rax, %rdi
	call	fgets@PLT
.L3:
	cmpl	$-1, -4(%rbp)
	jne	.L4
	movq	stderr(%rip), %rax
	leaq	.LC13(%rip), %rdx
	leaq	.LC14(%rip), %rsi
	movq	%rax, %rdi
	movl	$0, %eax
	call	fprintf@PLT
	movl	$0, %edi
	call	exit@PLT
.L4:
	cmpl	$47, -4(%rbp)
	jle	.L5
	cmpl	$57, -4(%rbp)
	jle	.L14
.L5:
	movq	-10024(%rbp), %rax
	movq	%rax, %rdi
	call	_IO_getc@PLT
	movl	%eax, -4(%rbp)
	jmp	.L7
.L14:
	nop
	movl	$0, -8(%rbp)
.L11:
	movl	-8(%rbp), %edx
	movl	%edx, %eax
	sall	$2, %eax
	addl	%edx, %eax
	addl	%eax, %eax
	movl	%eax, %edx
	movl	-4(%rbp), %eax
	subl	$48, %eax
	addl	%edx, %eax
	movl	%eax, -8(%rbp)
	movq	-10024(%rbp), %rax
	movq	%rax, %rdi
	call	_IO_getc@PLT
	movl	%eax, -4(%rbp)
	cmpl	$-1, -4(%rbp)
	jne	.L8
	movl	-8(%rbp), %eax
	jmp	.L12
.L8:
	cmpl	$47, -4(%rbp)
	jle	.L10
	cmpl	$57, -4(%rbp)
	jg	.L10
	jmp	.L11
.L10:
	movl	-8(%rbp), %eax
.L12:
	leave
	.cfi_def_cfa 7, 8
	ret
	.cfi_endproc
.LFE6:
	.size	getint, .-getint
	.section	.rodata
.LC15:
	.string	"r"
.LC16:
	.string	"Can't input image %s.\n"
	.align 8
.LC17:
	.string	"Image %s does not have binary PGM header.\n"
.LC18:
	.string	"Image %s is wrong size.\n"
	.text
	.globl	get_image
	.type	get_image, @function
get_image:
.LFB7:
	.cfi_startproc
	pushq	%rbp
	.cfi_def_cfa_offset 16
	.cfi_offset 6, -16
	movq	%rsp, %rbp
	.cfi_def_cfa_register 6
	subq	$144, %rsp
	movq	%rdi, -120(%rbp)
	movq	%rsi, -128(%rbp)
	movq	%rdx, -136(%rbp)
	movq	%rcx, -144(%rbp)
	movq	-120(%rbp), %rax
	leaq	.LC15(%rip), %rsi
	movq	%rax, %rdi
	call	fopen@PLT
	movq	%rax, -8(%rbp)
	cmpq	$0, -8(%rbp)
	jne	.L16
	movq	stderr(%rip), %rax
	movq	-120(%rbp), %rdx
	leaq	.LC16(%rip), %rsi
	movq	%rax, %rdi
	movl	$0, %eax
	call	fprintf@PLT
	movl	$0, %edi
	call	exit@PLT
.L16:
	movq	-8(%rbp), %rax
	movq	%rax, %rdi
	call	fgetc@PLT
	movb	%al, -112(%rbp)
	movq	-8(%rbp), %rax
	movq	%rax, %rdi
	call	fgetc@PLT
	movb	%al, -111(%rbp)
	movzbl	-112(%rbp), %eax
	cmpb	$80, %al
	jne	.L17
	movzbl	-111(%rbp), %eax
	cmpb	$53, %al
	je	.L18
.L17:
	movq	stderr(%rip), %rax
	movq	-120(%rbp), %rdx
	leaq	.LC17(%rip), %rsi
	movq	%rax, %rdi
	movl	$0, %eax
	call	fprintf@PLT
	movl	$0, %edi
	call	exit@PLT
.L18:
	movq	-8(%rbp), %rax
	movq	%rax, %rdi
	movl	$0, %eax
	call	getint
	movl	%eax, %edx
	movq	-136(%rbp), %rax
	movl	%edx, (%rax)
	movq	-8(%rbp), %rax
	movq	%rax, %rdi
	movl	$0, %eax
	call	getint
	movl	%eax, %edx
	movq	-144(%rbp), %rax
	movl	%edx, (%rax)
	movq	-8(%rbp), %rax
	movq	%rax, %rdi
	movl	$0, %eax
	call	getint
	movl	%eax, -12(%rbp)
	movq	-136(%rbp), %rax
	movl	(%rax), %edx
	movq	-144(%rbp), %rax
	movl	(%rax), %eax
	imull	%edx, %eax
	cltq
	movq	%rax, %rdi
	call	malloc@PLT
	movq	%rax, %rdx
	movq	-128(%rbp), %rax
	movq	%rdx, (%rax)
	movq	-136(%rbp), %rax
	movl	(%rax), %edx
	movq	-144(%rbp), %rax
	movl	(%rax), %eax
	imull	%edx, %eax
	movslq	%eax, %rdx
	movq	-128(%rbp), %rax
	movq	(%rax), %rax
	movq	-8(%rbp), %rcx
	movl	$1, %esi
	movq	%rax, %rdi
	call	fread@PLT
	testq	%rax, %rax
	jne	.L19
	movq	stderr(%rip), %rax
	movq	-120(%rbp), %rdx
	leaq	.LC18(%rip), %rsi
	movq	%rax, %rdi
	movl	$0, %eax
	call	fprintf@PLT
	movl	$0, %edi
	call	exit@PLT
.L19:
	movq	-8(%rbp), %rax
	movq	%rax, %rdi
	call	fclose@PLT
	nop
	leave
	.cfi_def_cfa 7, 8
	ret
	.cfi_endproc
.LFE7:
	.size	get_image, .-get_image
	.section	.rodata
.LC19:
	.string	"w"
.LC20:
	.string	"Can't output image%s.\n"
.LC21:
	.string	"P5\n"
.LC22:
	.string	"%d %d\n"
.LC23:
	.string	"255\n"
.LC24:
	.string	"Can't write image %s.\n"
	.text
	.globl	put_image
	.type	put_image, @function
put_image:
.LFB8:
	.cfi_startproc
	pushq	%rbp
	.cfi_def_cfa_offset 16
	.cfi_offset 6, -16
	movq	%rsp, %rbp
	.cfi_def_cfa_register 6
	subq	$48, %rsp
	movq	%rdi, -24(%rbp)
	movq	%rsi, -32(%rbp)
	movl	%edx, -36(%rbp)
	movl	%ecx, -40(%rbp)
	movq	-24(%rbp), %rax
	leaq	.LC19(%rip), %rsi
	movq	%rax, %rdi
	call	fopen@PLT
	movq	%rax, -8(%rbp)
	cmpq	$0, -8(%rbp)
	jne	.L21
	movq	stderr(%rip), %rax
	movq	-24(%rbp), %rdx
	leaq	.LC20(%rip), %rsi
	movq	%rax, %rdi
	movl	$0, %eax
	call	fprintf@PLT
	movl	$0, %edi
	call	exit@PLT
.L21:
	movq	-8(%rbp), %rax
	movq	%rax, %rcx
	movl	$3, %edx
	movl	$1, %esi
	leaq	.LC21(%rip), %rdi
	call	fwrite@PLT
	movl	-40(%rbp), %ecx
	movl	-36(%rbp), %edx
	movq	-8(%rbp), %rax
	leaq	.LC22(%rip), %rsi
	movq	%rax, %rdi
	movl	$0, %eax
	call	fprintf@PLT
	movq	-8(%rbp), %rax
	movq	%rax, %rcx
	movl	$4, %edx
	movl	$1, %esi
	leaq	.LC23(%rip), %rdi
	call	fwrite@PLT
	movl	-36(%rbp), %eax
	imull	-40(%rbp), %eax
	movslq	%eax, %rsi
	movq	-8(%rbp), %rdx
	movq	-32(%rbp), %rax
	movq	%rdx, %rcx
	movl	$1, %edx
	movq	%rax, %rdi
	call	fwrite@PLT
	cmpq	$1, %rax
	je	.L22
	movq	stderr(%rip), %rax
	movq	-24(%rbp), %rdx
	leaq	.LC24(%rip), %rsi
	movq	%rax, %rdi
	movl	$0, %eax
	call	fprintf@PLT
	movl	$0, %edi
	call	exit@PLT
.L22:
	movq	-8(%rbp), %rax
	movq	%rax, %rdi
	call	fclose@PLT
	nop
	leave
	.cfi_def_cfa 7, 8
	ret
	.cfi_endproc
.LFE8:
	.size	put_image, .-put_image
	.globl	int_to_uchar
	.type	int_to_uchar, @function
int_to_uchar:
.LFB9:
	.cfi_startproc
	pushq	%rbp
	.cfi_def_cfa_offset 16
	.cfi_offset 6, -16
	movq	%rsp, %rbp
	.cfi_def_cfa_register 6
	movq	%rdi, -24(%rbp)
	movq	%rsi, -32(%rbp)
	movl	%edx, -36(%rbp)
	movq	-24(%rbp), %rax
	movl	(%rax), %eax
	movl	%eax, -8(%rbp)
	movq	-24(%rbp), %rax
	movl	(%rax), %eax
	movl	%eax, -12(%rbp)
	movl	$0, -4(%rbp)
	jmp	.L24
.L27:
	movl	-4(%rbp), %eax
	cltq
	leaq	0(,%rax,4), %rdx
	movq	-24(%rbp), %rax
	addq	%rdx, %rax
	movl	(%rax), %eax
	cmpl	%eax, -8(%rbp)
	jge	.L25
	movl	-4(%rbp), %eax
	cltq
	leaq	0(,%rax,4), %rdx
	movq	-24(%rbp), %rax
	addq	%rdx, %rax
	movl	(%rax), %eax
	movl	%eax, -8(%rbp)
.L25:
	movl	-4(%rbp), %eax
	cltq
	leaq	0(,%rax,4), %rdx
	movq	-24(%rbp), %rax
	addq	%rdx, %rax
	movl	(%rax), %eax
	cmpl	%eax, -12(%rbp)
	jle	.L26
	movl	-4(%rbp), %eax
	cltq
	leaq	0(,%rax,4), %rdx
	movq	-24(%rbp), %rax
	addq	%rdx, %rax
	movl	(%rax), %eax
	movl	%eax, -12(%rbp)
.L26:
	addl	$1, -4(%rbp)
.L24:
	movl	-4(%rbp), %eax
	cmpl	-36(%rbp), %eax
	jl	.L27
	movl	-12(%rbp), %eax
	subl	%eax, -8(%rbp)
	movl	$0, -4(%rbp)
	jmp	.L28
.L29:
	movl	-4(%rbp), %eax
	cltq
	leaq	0(,%rax,4), %rdx
	movq	-24(%rbp), %rax
	addq	%rdx, %rax
	movl	(%rax), %eax
	subl	-12(%rbp), %eax
	movl	%eax, %edx
	movl	%edx, %eax
	sall	$8, %eax
	subl	%edx, %eax
	cltd
	idivl	-8(%rbp)
	movl	%eax, %ecx
	movl	-4(%rbp), %eax
	movslq	%eax, %rdx
	movq	-32(%rbp), %rax
	addq	%rdx, %rax
	movl	%ecx, %edx
	movb	%dl, (%rax)
	addl	$1, -4(%rbp)
.L28:
	movl	-4(%rbp), %eax
	cmpl	-36(%rbp), %eax
	jl	.L29
	nop
	popq	%rbp
	.cfi_def_cfa 7, 8
	ret
	.cfi_endproc
.LFE9:
	.size	int_to_uchar, .-int_to_uchar
	.globl	setup_brightness_lut
	.type	setup_brightness_lut, @function
setup_brightness_lut:
.LFB10:
	.cfi_startproc
	pushq	%rbp
	.cfi_def_cfa_offset 16
	.cfi_offset 6, -16
	movq	%rsp, %rbp
	.cfi_def_cfa_register 6
	subq	$32, %rsp
	movq	%rdi, -24(%rbp)
	movl	%esi, -28(%rbp)
	movl	%edx, -32(%rbp)
	movl	$516, %edi
	call	malloc@PLT
	movq	%rax, %rdx
	movq	-24(%rbp), %rax
	movq	%rdx, (%rax)
	movq	-24(%rbp), %rax
	movq	(%rax), %rax
	leaq	258(%rax), %rdx
	movq	-24(%rbp), %rax
	movq	%rdx, (%rax)
	movl	$-256, -4(%rbp)
	jmp	.L31
.L33:
	cvtsi2ss	-4(%rbp), %xmm0
	cvtsi2ss	-28(%rbp), %xmm1
	divss	%xmm1, %xmm0
	movss	%xmm0, -8(%rbp)
	movss	-8(%rbp), %xmm0
	mulss	-8(%rbp), %xmm0
	movss	%xmm0, -8(%rbp)
	cmpl	$6, -32(%rbp)
	jne	.L32
	movss	-8(%rbp), %xmm0
	mulss	-8(%rbp), %xmm0
	movss	-8(%rbp), %xmm1
	mulss	%xmm1, %xmm0
	movss	%xmm0, -8(%rbp)
.L32:
	movss	-8(%rbp), %xmm0
	movss	.LC25(%rip), %xmm1
	xorps	%xmm1, %xmm0
	cvtss2sd	%xmm0, %xmm0
	call	exp@PLT
	movapd	%xmm0, %xmm1
	movsd	.LC26(%rip), %xmm0
	mulsd	%xmm1, %xmm0
	cvtsd2ss	%xmm0, %xmm2
	movss	%xmm2, -8(%rbp)
	movq	-24(%rbp), %rax
	movq	(%rax), %rdx
	movl	-4(%rbp), %eax
	cltq
	addq	%rdx, %rax
	cvttss2si	-8(%rbp), %edx
	movb	%dl, (%rax)
	addl	$1, -4(%rbp)
.L31:
	cmpl	$256, -4(%rbp)
	jle	.L33
	nop
	leave
	.cfi_def_cfa 7, 8
	ret
	.cfi_endproc
.LFE10:
	.size	setup_brightness_lut, .-setup_brightness_lut
	.globl	susan_principle
	.type	susan_principle, @function
susan_principle:
.LFB11:
	.cfi_startproc
	pushq	%rbp
	.cfi_def_cfa_offset 16
	.cfi_offset 6, -16
	movq	%rsp, %rbp
	.cfi_def_cfa_register 6
	subq	$80, %rsp
	movq	%rdi, -40(%rbp)
	movq	%rsi, -48(%rbp)
	movq	%rdx, -56(%rbp)
	movl	%ecx, -60(%rbp)
	movl	%r8d, -64(%rbp)
	movl	%r9d, -68(%rbp)
	movl	-64(%rbp), %eax
	imull	-68(%rbp), %eax
	cltq
	leaq	0(,%rax,4), %rdx
	movq	-48(%rbp), %rax
	movl	$0, %esi
	movq	%rax, %rdi
	call	memset@PLT
	movl	$3, -4(%rbp)
	jmp	.L35
.L39:
	movl	$3, -8(%rbp)
	jmp	.L36
.L38:
	movl	$100, -12(%rbp)
	movl	-4(%rbp), %eax
	subl	$3, %eax
	imull	-64(%rbp), %eax
	movslq	%eax, %rdx
	movl	-8(%rbp), %eax
	cltq
	addq	%rdx, %rax
	leaq	-1(%rax), %rdx
	movq	-40(%rbp), %rax
	addq	%rdx, %rax
	movq	%rax, -24(%rbp)
	movl	-4(%rbp), %eax
	imull	-64(%rbp), %eax
	movl	%eax, %edx
	movl	-8(%rbp), %eax
	addl	%edx, %eax
	movslq	%eax, %rdx
	movq	-40(%rbp), %rax
	addq	%rdx, %rax
	movzbl	(%rax), %eax
	movzbl	%al, %edx
	movq	-56(%rbp), %rax
	addq	%rdx, %rax
	movq	%rax, -32(%rbp)
	movq	-24(%rbp), %rax
	leaq	1(%rax), %rdx
	movq	%rdx, -24(%rbp)
	movzbl	(%rax), %eax
	movzbl	%al, %eax
	negq	%rax
	movq	%rax, %rdx
	movq	-32(%rbp), %rax
	addq	%rdx, %rax
	movzbl	(%rax), %eax
	movzbl	%al, %eax
	addl	%eax, -12(%rbp)
	movq	-24(%rbp), %rax
	leaq	1(%rax), %rdx
	movq	%rdx, -24(%rbp)
	movzbl	(%rax), %eax
	movzbl	%al, %eax
	negq	%rax
	movq	%rax, %rdx
	movq	-32(%rbp), %rax
	addq	%rdx, %rax
	movzbl	(%rax), %eax
	movzbl	%al, %eax
	addl	%eax, -12(%rbp)
	movq	-24(%rbp), %rax
	movzbl	(%rax), %eax
	movzbl	%al, %eax
	negq	%rax
	movq	%rax, %rdx
	movq	-32(%rbp), %rax
	addq	%rdx, %rax
	movzbl	(%rax), %eax
	movzbl	%al, %eax
	addl	%eax, -12(%rbp)
	movl	-64(%rbp), %eax
	cltq
	subq	$3, %rax
	addq	%rax, -24(%rbp)
	movq	-24(%rbp), %rax
	leaq	1(%rax), %rdx
	movq	%rdx, -24(%rbp)
	movzbl	(%rax), %eax
	movzbl	%al, %eax
	negq	%rax
	movq	%rax, %rdx
	movq	-32(%rbp), %rax
	addq	%rdx, %rax
	movzbl	(%rax), %eax
	movzbl	%al, %eax
	addl	%eax, -12(%rbp)
	movq	-24(%rbp), %rax
	leaq	1(%rax), %rdx
	movq	%rdx, -24(%rbp)
	movzbl	(%rax), %eax
	movzbl	%al, %eax
	negq	%rax
	movq	%rax, %rdx
	movq	-32(%rbp), %rax
	addq	%rdx, %rax
	movzbl	(%rax), %eax
	movzbl	%al, %eax
	addl	%eax, -12(%rbp)
	movq	-24(%rbp), %rax
	leaq	1(%rax), %rdx
	movq	%rdx, -24(%rbp)
	movzbl	(%rax), %eax
	movzbl	%al, %eax
	negq	%rax
	movq	%rax, %rdx
	movq	-32(%rbp), %rax
	addq	%rdx, %rax
	movzbl	(%rax), %eax
	movzbl	%al, %eax
	addl	%eax, -12(%rbp)
	movq	-24(%rbp), %rax
	leaq	1(%rax), %rdx
	movq	%rdx, -24(%rbp)
	movzbl	(%rax), %eax
	movzbl	%al, %eax
	negq	%rax
	movq	%rax, %rdx
	movq	-32(%rbp), %rax
	addq	%rdx, %rax
	movzbl	(%rax), %eax
	movzbl	%al, %eax
	addl	%eax, -12(%rbp)
	movq	-24(%rbp), %rax
	movzbl	(%rax), %eax
	movzbl	%al, %eax
	negq	%rax
	movq	%rax, %rdx
	movq	-32(%rbp), %rax
	addq	%rdx, %rax
	movzbl	(%rax), %eax
	movzbl	%al, %eax
	addl	%eax, -12(%rbp)
	movl	-64(%rbp), %eax
	cltq
	subq	$5, %rax
	addq	%rax, -24(%rbp)
	movq	-24(%rbp), %rax
	leaq	1(%rax), %rdx
	movq	%rdx, -24(%rbp)
	movzbl	(%rax), %eax
	movzbl	%al, %eax
	negq	%rax
	movq	%rax, %rdx
	movq	-32(%rbp), %rax
	addq	%rdx, %rax
	movzbl	(%rax), %eax
	movzbl	%al, %eax
	addl	%eax, -12(%rbp)
	movq	-24(%rbp), %rax
	leaq	1(%rax), %rdx
	movq	%rdx, -24(%rbp)
	movzbl	(%rax), %eax
	movzbl	%al, %eax
	negq	%rax
	movq	%rax, %rdx
	movq	-32(%rbp), %rax
	addq	%rdx, %rax
	movzbl	(%rax), %eax
	movzbl	%al, %eax
	addl	%eax, -12(%rbp)
	movq	-24(%rbp), %rax
	leaq	1(%rax), %rdx
	movq	%rdx, -24(%rbp)
	movzbl	(%rax), %eax
	movzbl	%al, %eax
	negq	%rax
	movq	%rax, %rdx
	movq	-32(%rbp), %rax
	addq	%rdx, %rax
	movzbl	(%rax), %eax
	movzbl	%al, %eax
	addl	%eax, -12(%rbp)
	movq	-24(%rbp), %rax
	leaq	1(%rax), %rdx
	movq	%rdx, -24(%rbp)
	movzbl	(%rax), %eax
	movzbl	%al, %eax
	negq	%rax
	movq	%rax, %rdx
	movq	-32(%rbp), %rax
	addq	%rdx, %rax
	movzbl	(%rax), %eax
	movzbl	%al, %eax
	addl	%eax, -12(%rbp)
	movq	-24(%rbp), %rax
	leaq	1(%rax), %rdx
	movq	%rdx, -24(%rbp)
	movzbl	(%rax), %eax
	movzbl	%al, %eax
	negq	%rax
	movq	%rax, %rdx
	movq	-32(%rbp), %rax
	addq	%rdx, %rax
	movzbl	(%rax), %eax
	movzbl	%al, %eax
	addl	%eax, -12(%rbp)
	movq	-24(%rbp), %rax
	leaq	1(%rax), %rdx
	movq	%rdx, -24(%rbp)
	movzbl	(%rax), %eax
	movzbl	%al, %eax
	negq	%rax
	movq	%rax, %rdx
	movq	-32(%rbp), %rax
	addq	%rdx, %rax
	movzbl	(%rax), %eax
	movzbl	%al, %eax
	addl	%eax, -12(%rbp)
	movq	-24(%rbp), %rax
	movzbl	(%rax), %eax
	movzbl	%al, %eax
	negq	%rax
	movq	%rax, %rdx
	movq	-32(%rbp), %rax
	addq	%rdx, %rax
	movzbl	(%rax), %eax
	movzbl	%al, %eax
	addl	%eax, -12(%rbp)
	movl	-64(%rbp), %eax
	cltq
	subq	$6, %rax
	addq	%rax, -24(%rbp)
	movq	-24(%rbp), %rax
	leaq	1(%rax), %rdx
	movq	%rdx, -24(%rbp)
	movzbl	(%rax), %eax
	movzbl	%al, %eax
	negq	%rax
	movq	%rax, %rdx
	movq	-32(%rbp), %rax
	addq	%rdx, %rax
	movzbl	(%rax), %eax
	movzbl	%al, %eax
	addl	%eax, -12(%rbp)
	movq	-24(%rbp), %rax
	leaq	1(%rax), %rdx
	movq	%rdx, -24(%rbp)
	movzbl	(%rax), %eax
	movzbl	%al, %eax
	negq	%rax
	movq	%rax, %rdx
	movq	-32(%rbp), %rax
	addq	%rdx, %rax
	movzbl	(%rax), %eax
	movzbl	%al, %eax
	addl	%eax, -12(%rbp)
	movq	-24(%rbp), %rax
	movzbl	(%rax), %eax
	movzbl	%al, %eax
	negq	%rax
	movq	%rax, %rdx
	movq	-32(%rbp), %rax
	addq	%rdx, %rax
	movzbl	(%rax), %eax
	movzbl	%al, %eax
	addl	%eax, -12(%rbp)
	addq	$2, -24(%rbp)
	movq	-24(%rbp), %rax
	leaq	1(%rax), %rdx
	movq	%rdx, -24(%rbp)
	movzbl	(%rax), %eax
	movzbl	%al, %eax
	negq	%rax
	movq	%rax, %rdx
	movq	-32(%rbp), %rax
	addq	%rdx, %rax
	movzbl	(%rax), %eax
	movzbl	%al, %eax
	addl	%eax, -12(%rbp)
	movq	-24(%rbp), %rax
	leaq	1(%rax), %rdx
	movq	%rdx, -24(%rbp)
	movzbl	(%rax), %eax
	movzbl	%al, %eax
	negq	%rax
	movq	%rax, %rdx
	movq	-32(%rbp), %rax
	addq	%rdx, %rax
	movzbl	(%rax), %eax
	movzbl	%al, %eax
	addl	%eax, -12(%rbp)
	movq	-24(%rbp), %rax
	movzbl	(%rax), %eax
	movzbl	%al, %eax
	negq	%rax
	movq	%rax, %rdx
	movq	-32(%rbp), %rax
	addq	%rdx, %rax
	movzbl	(%rax), %eax
	movzbl	%al, %eax
	addl	%eax, -12(%rbp)
	movl	-64(%rbp), %eax
	cltq
	subq	$6, %rax
	addq	%rax, -24(%rbp)
	movq	-24(%rbp), %rax
	leaq	1(%rax), %rdx
	movq	%rdx, -24(%rbp)
	movzbl	(%rax), %eax
	movzbl	%al, %eax
	negq	%rax
	movq	%rax, %rdx
	movq	-32(%rbp), %rax
	addq	%rdx, %rax
	movzbl	(%rax), %eax
	movzbl	%al, %eax
	addl	%eax, -12(%rbp)
	movq	-24(%rbp), %rax
	leaq	1(%rax), %rdx
	movq	%rdx, -24(%rbp)
	movzbl	(%rax), %eax
	movzbl	%al, %eax
	negq	%rax
	movq	%rax, %rdx
	movq	-32(%rbp), %rax
	addq	%rdx, %rax
	movzbl	(%rax), %eax
	movzbl	%al, %eax
	addl	%eax, -12(%rbp)
	movq	-24(%rbp), %rax
	leaq	1(%rax), %rdx
	movq	%rdx, -24(%rbp)
	movzbl	(%rax), %eax
	movzbl	%al, %eax
	negq	%rax
	movq	%rax, %rdx
	movq	-32(%rbp), %rax
	addq	%rdx, %rax
	movzbl	(%rax), %eax
	movzbl	%al, %eax
	addl	%eax, -12(%rbp)
	movq	-24(%rbp), %rax
	leaq	1(%rax), %rdx
	movq	%rdx, -24(%rbp)
	movzbl	(%rax), %eax
	movzbl	%al, %eax
	negq	%rax
	movq	%rax, %rdx
	movq	-32(%rbp), %rax
	addq	%rdx, %rax
	movzbl	(%rax), %eax
	movzbl	%al, %eax
	addl	%eax, -12(%rbp)
	movq	-24(%rbp), %rax
	leaq	1(%rax), %rdx
	movq	%rdx, -24(%rbp)
	movzbl	(%rax), %eax
	movzbl	%al, %eax
	negq	%rax
	movq	%rax, %rdx
	movq	-32(%rbp), %rax
	addq	%rdx, %rax
	movzbl	(%rax), %eax
	movzbl	%al, %eax
	addl	%eax, -12(%rbp)
	movq	-24(%rbp), %rax
	leaq	1(%rax), %rdx
	movq	%rdx, -24(%rbp)
	movzbl	(%rax), %eax
	movzbl	%al, %eax
	negq	%rax
	movq	%rax, %rdx
	movq	-32(%rbp), %rax
	addq	%rdx, %rax
	movzbl	(%rax), %eax
	movzbl	%al, %eax
	addl	%eax, -12(%rbp)
	movq	-24(%rbp), %rax
	movzbl	(%rax), %eax
	movzbl	%al, %eax
	negq	%rax
	movq	%rax, %rdx
	movq	-32(%rbp), %rax
	addq	%rdx, %rax
	movzbl	(%rax), %eax
	movzbl	%al, %eax
	addl	%eax, -12(%rbp)
	movl	-64(%rbp), %eax
	cltq
	subq	$5, %rax
	addq	%rax, -24(%rbp)
	movq	-24(%rbp), %rax
	leaq	1(%rax), %rdx
	movq	%rdx, -24(%rbp)
	movzbl	(%rax), %eax
	movzbl	%al, %eax
	negq	%rax
	movq	%rax, %rdx
	movq	-32(%rbp), %rax
	addq	%rdx, %rax
	movzbl	(%rax), %eax
	movzbl	%al, %eax
	addl	%eax, -12(%rbp)
	movq	-24(%rbp), %rax
	leaq	1(%rax), %rdx
	movq	%rdx, -24(%rbp)
	movzbl	(%rax), %eax
	movzbl	%al, %eax
	negq	%rax
	movq	%rax, %rdx
	movq	-32(%rbp), %rax
	addq	%rdx, %rax
	movzbl	(%rax), %eax
	movzbl	%al, %eax
	addl	%eax, -12(%rbp)
	movq	-24(%rbp), %rax
	leaq	1(%rax), %rdx
	movq	%rdx, -24(%rbp)
	movzbl	(%rax), %eax
	movzbl	%al, %eax
	negq	%rax
	movq	%rax, %rdx
	movq	-32(%rbp), %rax
	addq	%rdx, %rax
	movzbl	(%rax), %eax
	movzbl	%al, %eax
	addl	%eax, -12(%rbp)
	movq	-24(%rbp), %rax
	leaq	1(%rax), %rdx
	movq	%rdx, -24(%rbp)
	movzbl	(%rax), %eax
	movzbl	%al, %eax
	negq	%rax
	movq	%rax, %rdx
	movq	-32(%rbp), %rax
	addq	%rdx, %rax
	movzbl	(%rax), %eax
	movzbl	%al, %eax
	addl	%eax, -12(%rbp)
	movq	-24(%rbp), %rax
	movzbl	(%rax), %eax
	movzbl	%al, %eax
	negq	%rax
	movq	%rax, %rdx
	movq	-32(%rbp), %rax
	addq	%rdx, %rax
	movzbl	(%rax), %eax
	movzbl	%al, %eax
	addl	%eax, -12(%rbp)
	movl	-64(%rbp), %eax
	cltq
	subq	$3, %rax
	addq	%rax, -24(%rbp)
	movq	-24(%rbp), %rax
	leaq	1(%rax), %rdx
	movq	%rdx, -24(%rbp)
	movzbl	(%rax), %eax
	movzbl	%al, %eax
	negq	%rax
	movq	%rax, %rdx
	movq	-32(%rbp), %rax
	addq	%rdx, %rax
	movzbl	(%rax), %eax
	movzbl	%al, %eax
	addl	%eax, -12(%rbp)
	movq	-24(%rbp), %rax
	leaq	1(%rax), %rdx
	movq	%rdx, -24(%rbp)
	movzbl	(%rax), %eax
	movzbl	%al, %eax
	negq	%rax
	movq	%rax, %rdx
	movq	-32(%rbp), %rax
	addq	%rdx, %rax
	movzbl	(%rax), %eax
	movzbl	%al, %eax
	addl	%eax, -12(%rbp)
	movq	-24(%rbp), %rax
	movzbl	(%rax), %eax
	movzbl	%al, %eax
	negq	%rax
	movq	%rax, %rdx
	movq	-32(%rbp), %rax
	addq	%rdx, %rax
	movzbl	(%rax), %eax
	movzbl	%al, %eax
	addl	%eax, -12(%rbp)
	movl	-12(%rbp), %eax
	cmpl	-60(%rbp), %eax
	jg	.L37
	movl	-4(%rbp), %eax
	imull	-64(%rbp), %eax
	movl	%eax, %edx
	movl	-8(%rbp), %eax
	addl	%edx, %eax
	cltq
	leaq	0(,%rax,4), %rdx
	movq	-48(%rbp), %rax
	addq	%rax, %rdx
	movl	-60(%rbp), %eax
	subl	-12(%rbp), %eax
	movl	%eax, (%rdx)
.L37:
	addl	$1, -8(%rbp)
.L36:
	movl	-64(%rbp), %eax
	subl	$3, %eax
	cmpl	%eax, -8(%rbp)
	jl	.L38
	addl	$1, -4(%rbp)
.L35:
	movl	-68(%rbp), %eax
	subl	$3, %eax
	cmpl	%eax, -4(%rbp)
	jl	.L39
	nop
	leave
	.cfi_def_cfa 7, 8
	ret
	.cfi_endproc
.LFE11:
	.size	susan_principle, .-susan_principle
	.globl	susan_principle_small
	.type	susan_principle_small, @function
susan_principle_small:
.LFB12:
	.cfi_startproc
	pushq	%rbp
	.cfi_def_cfa_offset 16
	.cfi_offset 6, -16
	movq	%rsp, %rbp
	.cfi_def_cfa_register 6
	subq	$80, %rsp
	movq	%rdi, -40(%rbp)
	movq	%rsi, -48(%rbp)
	movq	%rdx, -56(%rbp)
	movl	%ecx, -60(%rbp)
	movl	%r8d, -64(%rbp)
	movl	%r9d, -68(%rbp)
	movl	-64(%rbp), %eax
	imull	-68(%rbp), %eax
	cltq
	leaq	0(,%rax,4), %rdx
	movq	-48(%rbp), %rax
	movl	$0, %esi
	movq	%rax, %rdi
	call	memset@PLT
	movl	$730, -60(%rbp)
	movl	$1, -4(%rbp)
	jmp	.L41
.L45:
	movl	$1, -8(%rbp)
	jmp	.L42
.L44:
	movl	$100, -12(%rbp)
	movl	-4(%rbp), %eax
	subl	$1, %eax
	imull	-64(%rbp), %eax
	movslq	%eax, %rdx
	movl	-8(%rbp), %eax
	cltq
	addq	%rdx, %rax
	leaq	-1(%rax), %rdx
	movq	-40(%rbp), %rax
	addq	%rdx, %rax
	movq	%rax, -24(%rbp)
	movl	-4(%rbp), %eax
	imull	-64(%rbp), %eax
	movl	%eax, %edx
	movl	-8(%rbp), %eax
	addl	%edx, %eax
	movslq	%eax, %rdx
	movq	-40(%rbp), %rax
	addq	%rdx, %rax
	movzbl	(%rax), %eax
	movzbl	%al, %edx
	movq	-56(%rbp), %rax
	addq	%rdx, %rax
	movq	%rax, -32(%rbp)
	movq	-24(%rbp), %rax
	leaq	1(%rax), %rdx
	movq	%rdx, -24(%rbp)
	movzbl	(%rax), %eax
	movzbl	%al, %eax
	negq	%rax
	movq	%rax, %rdx
	movq	-32(%rbp), %rax
	addq	%rdx, %rax
	movzbl	(%rax), %eax
	movzbl	%al, %eax
	addl	%eax, -12(%rbp)
	movq	-24(%rbp), %rax
	leaq	1(%rax), %rdx
	movq	%rdx, -24(%rbp)
	movzbl	(%rax), %eax
	movzbl	%al, %eax
	negq	%rax
	movq	%rax, %rdx
	movq	-32(%rbp), %rax
	addq	%rdx, %rax
	movzbl	(%rax), %eax
	movzbl	%al, %eax
	addl	%eax, -12(%rbp)
	movq	-24(%rbp), %rax
	movzbl	(%rax), %eax
	movzbl	%al, %eax
	negq	%rax
	movq	%rax, %rdx
	movq	-32(%rbp), %rax
	addq	%rdx, %rax
	movzbl	(%rax), %eax
	movzbl	%al, %eax
	addl	%eax, -12(%rbp)
	movl	-64(%rbp), %eax
	cltq
	subq	$2, %rax
	addq	%rax, -24(%rbp)
	movq	-24(%rbp), %rax
	movzbl	(%rax), %eax
	movzbl	%al, %eax
	negq	%rax
	movq	%rax, %rdx
	movq	-32(%rbp), %rax
	addq	%rdx, %rax
	movzbl	(%rax), %eax
	movzbl	%al, %eax
	addl	%eax, -12(%rbp)
	addq	$2, -24(%rbp)
	movq	-24(%rbp), %rax
	movzbl	(%rax), %eax
	movzbl	%al, %eax
	negq	%rax
	movq	%rax, %rdx
	movq	-32(%rbp), %rax
	addq	%rdx, %rax
	movzbl	(%rax), %eax
	movzbl	%al, %eax
	addl	%eax, -12(%rbp)
	movl	-64(%rbp), %eax
	cltq
	subq	$2, %rax
	addq	%rax, -24(%rbp)
	movq	-24(%rbp), %rax
	leaq	1(%rax), %rdx
	movq	%rdx, -24(%rbp)
	movzbl	(%rax), %eax
	movzbl	%al, %eax
	negq	%rax
	movq	%rax, %rdx
	movq	-32(%rbp), %rax
	addq	%rdx, %rax
	movzbl	(%rax), %eax
	movzbl	%al, %eax
	addl	%eax, -12(%rbp)
	movq	-24(%rbp), %rax
	leaq	1(%rax), %rdx
	movq	%rdx, -24(%rbp)
	movzbl	(%rax), %eax
	movzbl	%al, %eax
	negq	%rax
	movq	%rax, %rdx
	movq	-32(%rbp), %rax
	addq	%rdx, %rax
	movzbl	(%rax), %eax
	movzbl	%al, %eax
	addl	%eax, -12(%rbp)
	movq	-24(%rbp), %rax
	movzbl	(%rax), %eax
	movzbl	%al, %eax
	negq	%rax
	movq	%rax, %rdx
	movq	-32(%rbp), %rax
	addq	%rdx, %rax
	movzbl	(%rax), %eax
	movzbl	%al, %eax
	addl	%eax, -12(%rbp)
	movl	-12(%rbp), %eax
	cmpl	-60(%rbp), %eax
	jg	.L43
	movl	-4(%rbp), %eax
	imull	-64(%rbp), %eax
	movl	%eax, %edx
	movl	-8(%rbp), %eax
	addl	%edx, %eax
	cltq
	leaq	0(,%rax,4), %rdx
	movq	-48(%rbp), %rax
	addq	%rax, %rdx
	movl	-60(%rbp), %eax
	subl	-12(%rbp), %eax
	movl	%eax, (%rdx)
.L43:
	addl	$1, -8(%rbp)
.L42:
	movl	-64(%rbp), %eax
	subl	$1, %eax
	cmpl	%eax, -8(%rbp)
	jl	.L44
	addl	$1, -4(%rbp)
.L41:
	movl	-68(%rbp), %eax
	subl	$1, %eax
	cmpl	%eax, -4(%rbp)
	jl	.L45
	nop
	leave
	.cfi_def_cfa 7, 8
	ret
	.cfi_endproc
.LFE12:
	.size	susan_principle_small, .-susan_principle_small
	.globl	median
	.type	median, @function
median:
.LFB13:
	.cfi_startproc
	pushq	%rbp
	.cfi_def_cfa_offset 16
	.cfi_offset 6, -16
	movq	%rsp, %rbp
	.cfi_def_cfa_register 6
	movq	%rdi, -56(%rbp)
	movl	%esi, -60(%rbp)
	movl	%edx, -64(%rbp)
	movl	%ecx, -68(%rbp)
	movl	-60(%rbp), %eax
	subl	$1, %eax
	imull	-68(%rbp), %eax
	movl	%eax, %edx
	movl	-64(%rbp), %eax
	addl	%edx, %eax
	cltq
	leaq	-1(%rax), %rdx
	movq	-56(%rbp), %rax
	addq	%rdx, %rax
	movzbl	(%rax), %eax
	movzbl	%al, %eax
	movl	%eax, -48(%rbp)
	movl	-60(%rbp), %eax
	subl	$1, %eax
	imull	-68(%rbp), %eax
	movl	%eax, %edx
	movl	-64(%rbp), %eax
	addl	%edx, %eax
	movslq	%eax, %rdx
	movq	-56(%rbp), %rax
	addq	%rdx, %rax
	movzbl	(%rax), %eax
	movzbl	%al, %eax
	movl	%eax, -44(%rbp)
	movl	-60(%rbp), %eax
	subl	$1, %eax
	imull	-68(%rbp), %eax
	movl	%eax, %edx
	movl	-64(%rbp), %eax
	addl	%edx, %eax
	cltq
	leaq	1(%rax), %rdx
	movq	-56(%rbp), %rax
	addq	%rdx, %rax
	movzbl	(%rax), %eax
	movzbl	%al, %eax
	movl	%eax, -40(%rbp)
	movl	-60(%rbp), %eax
	imull	-68(%rbp), %eax
	movl	%eax, %edx
	movl	-64(%rbp), %eax
	addl	%edx, %eax
	cltq
	leaq	-1(%rax), %rdx
	movq	-56(%rbp), %rax
	addq	%rdx, %rax
	movzbl	(%rax), %eax
	movzbl	%al, %eax
	movl	%eax, -36(%rbp)
	movl	-60(%rbp), %eax
	imull	-68(%rbp), %eax
	movl	%eax, %edx
	movl	-64(%rbp), %eax
	addl	%edx, %eax
	cltq
	leaq	1(%rax), %rdx
	movq	-56(%rbp), %rax
	addq	%rdx, %rax
	movzbl	(%rax), %eax
	movzbl	%al, %eax
	movl	%eax, -32(%rbp)
	movl	-60(%rbp), %eax
	addl	$1, %eax
	imull	-68(%rbp), %eax
	movl	%eax, %edx
	movl	-64(%rbp), %eax
	addl	%edx, %eax
	cltq
	leaq	-1(%rax), %rdx
	movq	-56(%rbp), %rax
	addq	%rdx, %rax
	movzbl	(%rax), %eax
	movzbl	%al, %eax
	movl	%eax, -28(%rbp)
	movl	-60(%rbp), %eax
	addl	$1, %eax
	imull	-68(%rbp), %eax
	movl	%eax, %edx
	movl	-64(%rbp), %eax
	addl	%edx, %eax
	movslq	%eax, %rdx
	movq	-56(%rbp), %rax
	addq	%rdx, %rax
	movzbl	(%rax), %eax
	movzbl	%al, %eax
	movl	%eax, -24(%rbp)
	movl	-60(%rbp), %eax
	addl	$1, %eax
	imull	-68(%rbp), %eax
	movl	%eax, %edx
	movl	-64(%rbp), %eax
	addl	%edx, %eax
	cltq
	leaq	1(%rax), %rdx
	movq	-56(%rbp), %rax
	addq	%rdx, %rax
	movzbl	(%rax), %eax
	movzbl	%al, %eax
	movl	%eax, -20(%rbp)
	movl	$0, -4(%rbp)
	jmp	.L47
.L51:
	movl	$0, -8(%rbp)
	jmp	.L48
.L50:
	movl	-8(%rbp), %eax
	cltq
	movl	-48(%rbp,%rax,4), %edx
	movl	-8(%rbp), %eax
	addl	$1, %eax
	cltq
	movl	-48(%rbp,%rax,4), %eax
	cmpl	%eax, %edx
	jle	.L49
	movl	-8(%rbp), %eax
	cltq
	movl	-48(%rbp,%rax,4), %eax
	movl	%eax, -12(%rbp)
	movl	-8(%rbp), %eax
	addl	$1, %eax
	cltq
	movl	-48(%rbp,%rax,4), %edx
	movl	-8(%rbp), %eax
	cltq
	movl	%edx, -48(%rbp,%rax,4)
	movl	-8(%rbp), %eax
	addl	$1, %eax
	cltq
	movl	-12(%rbp), %edx
	movl	%edx, -48(%rbp,%rax,4)
.L49:
	addl	$1, -8(%rbp)
.L48:
	movl	$7, %eax
	subl	-4(%rbp), %eax
	cmpl	%eax, -8(%rbp)
	jl	.L50
	addl	$1, -4(%rbp)
.L47:
	cmpl	$6, -4(%rbp)
	jle	.L51
	movl	-36(%rbp), %edx
	movl	-32(%rbp), %eax
	addl	%edx, %eax
	movl	%eax, %edx
	shrl	$31, %edx
	addl	%edx, %eax
	sarl	%eax
	popq	%rbp
	.cfi_def_cfa 7, 8
	ret
	.cfi_endproc
.LFE13:
	.size	median, .-median
	.globl	enlarge
	.type	enlarge, @function
enlarge:
.LFB14:
	.cfi_startproc
	pushq	%rbp
	.cfi_def_cfa_offset 16
	.cfi_offset 6, -16
	movq	%rsp, %rbp
	.cfi_def_cfa_register 6
	subq	$64, %rsp
	movq	%rdi, -24(%rbp)
	movq	%rsi, -32(%rbp)
	movq	%rdx, -40(%rbp)
	movq	%rcx, -48(%rbp)
	movl	%r8d, -52(%rbp)
	movl	$0, -4(%rbp)
	jmp	.L54
.L55:
	movq	-40(%rbp), %rax
	movl	(%rax), %eax
	cltq
	movq	-24(%rbp), %rdx
	movq	(%rdx), %rcx
	movq	-40(%rbp), %rdx
	movl	(%rdx), %edx
	imull	-4(%rbp), %edx
	movslq	%edx, %rdx
	leaq	(%rcx,%rdx), %rsi
	movl	-4(%rbp), %ecx
	movl	-52(%rbp), %edx
	leal	(%rcx,%rdx), %edi
	movq	-40(%rbp), %rdx
	movl	(%rdx), %edx
	movl	-52(%rbp), %ecx
	addl	%ecx, %ecx
	addl	%ecx, %edx
	imull	%edi, %edx
	movslq	%edx, %rcx
	movl	-52(%rbp), %edx
	movslq	%edx, %rdx
	addq	%rdx, %rcx
	movq	-32(%rbp), %rdx
	addq	%rdx, %rcx
	movq	%rax, %rdx
	movq	%rcx, %rdi
	call	memcpy@PLT
	addl	$1, -4(%rbp)
.L54:
	movq	-48(%rbp), %rax
	movl	(%rax), %eax
	cmpl	%eax, -4(%rbp)
	jl	.L55
	movl	$0, -4(%rbp)
	jmp	.L56
.L57:
	movq	-40(%rbp), %rax
	movl	(%rax), %eax
	cltq
	movq	-24(%rbp), %rdx
	movq	(%rdx), %rcx
	movq	-40(%rbp), %rdx
	movl	(%rdx), %edx
	imull	-4(%rbp), %edx
	movslq	%edx, %rdx
	leaq	(%rcx,%rdx), %rsi
	movl	-52(%rbp), %edx
	subl	$1, %edx
	movl	%edx, %ecx
	subl	-4(%rbp), %ecx
	movq	-40(%rbp), %rdx
	movl	(%rdx), %edx
	movl	-52(%rbp), %edi
	addl	%edi, %edi
	addl	%edi, %edx
	imull	%ecx, %edx
	movslq	%edx, %rcx
	movl	-52(%rbp), %edx
	movslq	%edx, %rdx
	addq	%rdx, %rcx
	movq	-32(%rbp), %rdx
	addq	%rdx, %rcx
	movq	%rax, %rdx
	movq	%rcx, %rdi
	call	memcpy@PLT
	movq	-40(%rbp), %rax
	movl	(%rax), %eax
	cltq
	movq	-24(%rbp), %rdx
	movq	(%rdx), %rcx
	movq	-48(%rbp), %rdx
	movl	(%rdx), %edx
	subl	-4(%rbp), %edx
	leal	-1(%rdx), %esi
	movq	-40(%rbp), %rdx
	movl	(%rdx), %edx
	imull	%esi, %edx
	movslq	%edx, %rdx
	leaq	(%rcx,%rdx), %rsi
	movq	-48(%rbp), %rdx
	movl	(%rdx), %ecx
	movl	-52(%rbp), %edx
	addl	%edx, %ecx
	movl	-4(%rbp), %edx
	leal	(%rcx,%rdx), %edi
	movq	-40(%rbp), %rdx
	movl	(%rdx), %edx
	movl	-52(%rbp), %ecx
	addl	%ecx, %ecx
	addl	%ecx, %edx
	imull	%edi, %edx
	movslq	%edx, %rcx
	movl	-52(%rbp), %edx
	movslq	%edx, %rdx
	addq	%rdx, %rcx
	movq	-32(%rbp), %rdx
	addq	%rdx, %rcx
	movq	%rax, %rdx
	movq	%rcx, %rdi
	call	memcpy@PLT
	addl	$1, -4(%rbp)
.L56:
	movl	-4(%rbp), %eax
	cmpl	-52(%rbp), %eax
	jl	.L57
	movl	$0, -4(%rbp)
	jmp	.L58
.L61:
	movl	$0, -8(%rbp)
	jmp	.L59
.L60:
	movq	-40(%rbp), %rax
	movl	(%rax), %eax
	movl	-52(%rbp), %edx
	addl	%edx, %edx
	addl	%edx, %eax
	imull	-8(%rbp), %eax
	movl	%eax, %edx
	movl	-52(%rbp), %eax
	addl	%eax, %edx
	movl	-4(%rbp), %eax
	addl	%edx, %eax
	movslq	%eax, %rdx
	movq	-32(%rbp), %rax
	leaq	(%rdx,%rax), %rcx
	movq	-40(%rbp), %rax
	movl	(%rax), %eax
	movl	-52(%rbp), %edx
	addl	%edx, %edx
	addl	%edx, %eax
	imull	-8(%rbp), %eax
	movl	%eax, %edx
	movl	-52(%rbp), %eax
	addl	%edx, %eax
	subl	$1, %eax
	subl	-4(%rbp), %eax
	movslq	%eax, %rdx
	movq	-32(%rbp), %rax
	addq	%rax, %rdx
	movzbl	(%rcx), %eax
	movb	%al, (%rdx)
	movq	-40(%rbp), %rax
	movl	(%rax), %eax
	movl	-52(%rbp), %edx
	addl	%edx, %edx
	addl	%edx, %eax
	imull	-8(%rbp), %eax
	movl	%eax, %edx
	movq	-40(%rbp), %rax
	movl	(%rax), %eax
	addl	%eax, %edx
	movl	-52(%rbp), %eax
	addl	%edx, %eax
	subl	$1, %eax
	subl	-4(%rbp), %eax
	movslq	%eax, %rdx
	movq	-32(%rbp), %rax
	leaq	(%rdx,%rax), %rcx
	movq	-40(%rbp), %rax
	movl	(%rax), %eax
	movl	-52(%rbp), %edx
	addl	%edx, %edx
	addl	%edx, %eax
	imull	-8(%rbp), %eax
	movl	%eax, %edx
	movq	-40(%rbp), %rax
	movl	(%rax), %eax
	addl	%eax, %edx
	movl	-52(%rbp), %eax
	addl	%eax, %edx
	movl	-4(%rbp), %eax
	addl	%edx, %eax
	movslq	%eax, %rdx
	movq	-32(%rbp), %rax
	addq	%rax, %rdx
	movzbl	(%rcx), %eax
	movb	%al, (%rdx)
	addl	$1, -8(%rbp)
.L59:
	movq	-48(%rbp), %rax
	movl	(%rax), %eax
	movl	-52(%rbp), %edx
	addl	%edx, %edx
	addl	%edx, %eax
	cmpl	%eax, -8(%rbp)
	jl	.L60
	addl	$1, -4(%rbp)
.L58:
	movl	-4(%rbp), %eax
	cmpl	-52(%rbp), %eax
	jl	.L61
	movq	-40(%rbp), %rax
	movl	(%rax), %eax
	movl	-52(%rbp), %edx
	addl	%edx, %edx
	addl	%eax, %edx
	movq	-40(%rbp), %rax
	movl	%edx, (%rax)
	movq	-48(%rbp), %rax
	movl	(%rax), %eax
	movl	-52(%rbp), %edx
	addl	%edx, %edx
	addl	%eax, %edx
	movq	-48(%rbp), %rax
	movl	%edx, (%rax)
	movq	-24(%rbp), %rax
	movq	-32(%rbp), %rdx
	movq	%rdx, (%rax)
	nop
	leave
	.cfi_def_cfa 7, 8
	ret
	.cfi_endproc
.LFE14:
	.size	enlarge, .-enlarge
	.section	.rodata
	.align 8
.LC29:
	.string	"Distance_thresh (%f) too big for integer arithmetic.\n"
	.align 8
.LC30:
	.string	"Either reduce it to <=15 or recompile with variable \"total\""
	.align 8
.LC31:
	.string	"as a float: see top \"defines\" section."
	.align 8
.LC32:
	.string	"Mask size (1.5*distance_thresh+1=%d) too big for image (%dx%d).\n"
	.text
	.globl	susan_smoothing
	.type	susan_smoothing, @function
susan_smoothing:
.LFB15:
	.cfi_startproc
	pushq	%rbp
	.cfi_def_cfa_offset 16
	.cfi_offset 6, -16
	movq	%rsp, %rbp
	.cfi_def_cfa_register 6
	pushq	%rbx
	subq	$152, %rsp
	.cfi_offset 3, -24
	movl	%edi, -132(%rbp)
	movq	%rsi, -144(%rbp)
	movl	%edx, -148(%rbp)
	movl	%ecx, -152(%rbp)
	movq	%r8, -160(%rbp)
	cvtsd2ss	%xmm0, %xmm0
	movss	%xmm0, -136(%rbp)
	movq	-144(%rbp), %rax
	movq	%rax, -64(%rbp)
	cmpl	$0, -132(%rbp)
	jne	.L63
	cvtss2sd	-136(%rbp), %xmm1
	movsd	.LC27(%rip), %xmm0
	mulsd	%xmm1, %xmm0
	cvttsd2si	%xmm0, %eax
	addl	$1, %eax
	movl	%eax, -20(%rbp)
	jmp	.L64
.L63:
	movl	$1, -20(%rbp)
.L64:
	movl	$0, -68(%rbp)
	movss	-136(%rbp), %xmm0
	comiss	.LC28(%rip), %xmm0
	jbe	.L65
	cmpl	$0, -68(%rbp)
	jne	.L65
	cvtss2sd	-136(%rbp), %xmm0
	leaq	.LC29(%rip), %rdi
	movl	$1, %eax
	call	printf@PLT
	leaq	.LC30(%rip), %rdi
	call	puts@PLT
	leaq	.LC31(%rip), %rdi
	call	puts@PLT
	movl	$0, %edi
	call	exit@PLT
.L65:
	movl	-20(%rbp), %eax
	leal	(%rax,%rax), %edx
	movl	-148(%rbp), %eax
	cmpl	%eax, %edx
	jge	.L67
	movl	-20(%rbp), %eax
	leal	(%rax,%rax), %edx
	movl	-152(%rbp), %eax
	cmpl	%eax, %edx
	jl	.L68
.L67:
	movl	-152(%rbp), %ecx
	movl	-148(%rbp), %edx
	movl	-20(%rbp), %eax
	movl	%eax, %esi
	leaq	.LC32(%rip), %rdi
	movl	$0, %eax
	call	printf@PLT
	movl	$0, %edi
	call	exit@PLT
.L68:
	movl	-20(%rbp), %eax
	leal	(%rax,%rax), %edx
	movl	-148(%rbp), %eax
	addl	%eax, %edx
	movl	-20(%rbp), %eax
	leal	(%rax,%rax), %ecx
	movl	-152(%rbp), %eax
	addl	%ecx, %eax
	imull	%edx, %eax
	cltq
	movq	%rax, %rdi
	call	malloc@PLT
	movq	%rax, -80(%rbp)
	movl	-20(%rbp), %edi
	leaq	-152(%rbp), %rcx
	leaq	-148(%rbp), %rdx
	movq	-80(%rbp), %rsi
	leaq	-144(%rbp), %rax
	movl	%edi, %r8d
	movq	%rax, %rdi
	movl	$0, %eax
	call	enlarge
	cmpl	$0, -132(%rbp)
	jne	.L69
	movl	-20(%rbp), %eax
	addl	%eax, %eax
	addl	$1, %eax
	movl	%eax, -84(%rbp)
	movl	-148(%rbp), %eax
	subl	-84(%rbp), %eax
	movl	%eax, -88(%rbp)
	movl	-84(%rbp), %eax
	imull	-84(%rbp), %eax
	cltq
	movq	%rax, %rdi
	call	malloc@PLT
	movq	%rax, -96(%rbp)
	movq	-96(%rbp), %rax
	movq	%rax, -56(%rbp)
	movss	-136(%rbp), %xmm0
	mulss	-136(%rbp), %xmm0
	movss	.LC25(%rip), %xmm1
	xorps	%xmm1, %xmm0
	movss	%xmm0, -100(%rbp)
	movl	-20(%rbp), %eax
	negl	%eax
	movl	%eax, -24(%rbp)
	jmp	.L70
.L73:
	movl	-20(%rbp), %eax
	negl	%eax
	movl	%eax, -28(%rbp)
	jmp	.L71
.L72:
	movl	-24(%rbp), %eax
	imull	-24(%rbp), %eax
	movl	%eax, %edx
	movl	-28(%rbp), %eax
	imull	-28(%rbp), %eax
	addl	%edx, %eax
	cvtsi2ss	%eax, %xmm0
	divss	-100(%rbp), %xmm0
	cvtss2sd	%xmm0, %xmm0
	call	exp@PLT
	movapd	%xmm0, %xmm1
	movsd	.LC26(%rip), %xmm0
	mulsd	%xmm1, %xmm0
	cvttsd2si	%xmm0, %eax
	movl	%eax, -32(%rbp)
	movq	-56(%rbp), %rax
	leaq	1(%rax), %rdx
	movq	%rdx, -56(%rbp)
	movl	-32(%rbp), %edx
	movb	%dl, (%rax)
	addl	$1, -28(%rbp)
.L71:
	movl	-28(%rbp), %eax
	cmpl	-20(%rbp), %eax
	jle	.L72
	addl	$1, -24(%rbp)
.L70:
	movl	-24(%rbp), %eax
	cmpl	-20(%rbp), %eax
	jle	.L73
	movl	-20(%rbp), %eax
	movl	%eax, -24(%rbp)
	jmp	.L74
.L83:
	movl	-20(%rbp), %eax
	movl	%eax, -28(%rbp)
	jmp	.L75
.L82:
	movl	$0, -40(%rbp)
	movl	$0, -68(%rbp)
	movq	-96(%rbp), %rax
	movq	%rax, -56(%rbp)
	movq	-144(%rbp), %rdx
	movl	-24(%rbp), %eax
	subl	-20(%rbp), %eax
	movl	%eax, %ecx
	movl	-148(%rbp), %eax
	imull	%ecx, %eax
	movslq	%eax, %rcx
	movl	-28(%rbp), %eax
	cltq
	addq	%rax, %rcx
	movl	-20(%rbp), %eax
	cltq
	subq	%rax, %rcx
	movq	%rcx, %rax
	addq	%rdx, %rax
	movq	%rax, -48(%rbp)
	movq	-144(%rbp), %rdx
	movl	-148(%rbp), %eax
	imull	-24(%rbp), %eax
	movl	%eax, %ecx
	movl	-28(%rbp), %eax
	addl	%ecx, %eax
	cltq
	addq	%rdx, %rax
	movzbl	(%rax), %eax
	movzbl	%al, %eax
	movl	%eax, -104(%rbp)
	movl	-104(%rbp), %eax
	movslq	%eax, %rdx
	movq	-160(%rbp), %rax
	addq	%rdx, %rax
	movq	%rax, -112(%rbp)
	movl	-20(%rbp), %eax
	negl	%eax
	movl	%eax, -36(%rbp)
	jmp	.L76
.L79:
	movl	-20(%rbp), %eax
	negl	%eax
	movl	%eax, -32(%rbp)
	jmp	.L77
.L78:
	movq	-48(%rbp), %rax
	leaq	1(%rax), %rdx
	movq	%rdx, -48(%rbp)
	movzbl	(%rax), %eax
	movzbl	%al, %eax
	movl	%eax, -116(%rbp)
	movq	-56(%rbp), %rax
	leaq	1(%rax), %rdx
	movq	%rdx, -56(%rbp)
	movzbl	(%rax), %eax
	movzbl	%al, %edx
	movl	-116(%rbp), %eax
	cltq
	negq	%rax
	movq	%rax, %rcx
	movq	-112(%rbp), %rax
	addq	%rcx, %rax
	movzbl	(%rax), %eax
	movzbl	%al, %eax
	imull	%edx, %eax
	movl	%eax, -120(%rbp)
	movl	-120(%rbp), %eax
	addl	%eax, -40(%rbp)
	movl	-120(%rbp), %eax
	imull	-116(%rbp), %eax
	addl	%eax, -68(%rbp)
	addl	$1, -32(%rbp)
.L77:
	movl	-32(%rbp), %eax
	cmpl	-20(%rbp), %eax
	jle	.L78
	movl	-88(%rbp), %eax
	cltq
	addq	%rax, -48(%rbp)
	addl	$1, -36(%rbp)
.L76:
	movl	-36(%rbp), %eax
	cmpl	-20(%rbp), %eax
	jle	.L79
	movl	-40(%rbp), %eax
	subl	$10000, %eax
	movl	%eax, -120(%rbp)
	cmpl	$0, -120(%rbp)
	jne	.L80
	movl	-148(%rbp), %ecx
	movq	-144(%rbp), %rax
	movq	-64(%rbp), %rbx
	leaq	1(%rbx), %rdx
	movq	%rdx, -64(%rbp)
	movl	-28(%rbp), %edx
	movl	-24(%rbp), %esi
	movq	%rax, %rdi
	movl	$0, %eax
	call	median
	movb	%al, (%rbx)
	jmp	.L81
.L80:
	movl	-104(%rbp), %eax
	imull	$-10000, %eax, %edx
	movl	-68(%rbp), %eax
	addl	%edx, %eax
	cltd
	idivl	-120(%rbp)
	movl	%eax, %ecx
	movq	-64(%rbp), %rax
	leaq	1(%rax), %rdx
	movq	%rdx, -64(%rbp)
	movl	%ecx, %edx
	movb	%dl, (%rax)
.L81:
	addl	$1, -28(%rbp)
.L75:
	movl	-148(%rbp), %eax
	subl	-20(%rbp), %eax
	cmpl	%eax, -28(%rbp)
	jl	.L82
	addl	$1, -24(%rbp)
.L74:
	movl	-152(%rbp), %eax
	subl	-20(%rbp), %eax
	cmpl	%eax, -24(%rbp)
	jl	.L83
	jmp	.L92
.L69:
	movl	$1, -24(%rbp)
	jmp	.L85
.L90:
	movl	$1, -28(%rbp)
	jmp	.L86
.L89:
	movl	$0, -40(%rbp)
	movl	$0, -68(%rbp)
	movq	-144(%rbp), %rax
	movl	-24(%rbp), %edx
	leal	-1(%rdx), %ecx
	movl	-148(%rbp), %edx
	imull	%ecx, %edx
	movslq	%edx, %rcx
	movl	-28(%rbp), %edx
	movslq	%edx, %rdx
	addq	%rcx, %rdx
	subq	$1, %rdx
	addq	%rdx, %rax
	movq	%rax, -48(%rbp)
	movq	-144(%rbp), %rdx
	movl	-148(%rbp), %eax
	imull	-24(%rbp), %eax
	movl	%eax, %ecx
	movl	-28(%rbp), %eax
	addl	%ecx, %eax
	cltq
	addq	%rdx, %rax
	movzbl	(%rax), %eax
	movzbl	%al, %eax
	movl	%eax, -104(%rbp)
	movl	-104(%rbp), %eax
	movslq	%eax, %rdx
	movq	-160(%rbp), %rax
	addq	%rdx, %rax
	movq	%rax, -112(%rbp)
	movq	-48(%rbp), %rax
	leaq	1(%rax), %rdx
	movq	%rdx, -48(%rbp)
	movzbl	(%rax), %eax
	movzbl	%al, %eax
	movl	%eax, -116(%rbp)
	movl	-116(%rbp), %eax
	cltq
	negq	%rax
	movq	%rax, %rdx
	movq	-112(%rbp), %rax
	addq	%rdx, %rax
	movzbl	(%rax), %eax
	movzbl	%al, %eax
	movl	%eax, -120(%rbp)
	movl	-120(%rbp), %eax
	addl	%eax, -40(%rbp)
	movl	-120(%rbp), %eax
	imull	-116(%rbp), %eax
	addl	%eax, -68(%rbp)
	movq	-48(%rbp), %rax
	leaq	1(%rax), %rdx
	movq	%rdx, -48(%rbp)
	movzbl	(%rax), %eax
	movzbl	%al, %eax
	movl	%eax, -116(%rbp)
	movl	-116(%rbp), %eax
	cltq
	negq	%rax
	movq	%rax, %rdx
	movq	-112(%rbp), %rax
	addq	%rdx, %rax
	movzbl	(%rax), %eax
	movzbl	%al, %eax
	movl	%eax, -120(%rbp)
	movl	-120(%rbp), %eax
	addl	%eax, -40(%rbp)
	movl	-120(%rbp), %eax
	imull	-116(%rbp), %eax
	addl	%eax, -68(%rbp)
	movq	-48(%rbp), %rax
	movzbl	(%rax), %eax
	movzbl	%al, %eax
	movl	%eax, -116(%rbp)
	movl	-116(%rbp), %eax
	cltq
	negq	%rax
	movq	%rax, %rdx
	movq	-112(%rbp), %rax
	addq	%rdx, %rax
	movzbl	(%rax), %eax
	movzbl	%al, %eax
	movl	%eax, -120(%rbp)
	movl	-120(%rbp), %eax
	addl	%eax, -40(%rbp)
	movl	-120(%rbp), %eax
	imull	-116(%rbp), %eax
	addl	%eax, -68(%rbp)
	movl	-148(%rbp), %eax
	cltq
	subq	$2, %rax
	addq	%rax, -48(%rbp)
	movq	-48(%rbp), %rax
	leaq	1(%rax), %rdx
	movq	%rdx, -48(%rbp)
	movzbl	(%rax), %eax
	movzbl	%al, %eax
	movl	%eax, -116(%rbp)
	movl	-116(%rbp), %eax
	cltq
	negq	%rax
	movq	%rax, %rdx
	movq	-112(%rbp), %rax
	addq	%rdx, %rax
	movzbl	(%rax), %eax
	movzbl	%al, %eax
	movl	%eax, -120(%rbp)
	movl	-120(%rbp), %eax
	addl	%eax, -40(%rbp)
	movl	-120(%rbp), %eax
	imull	-116(%rbp), %eax
	addl	%eax, -68(%rbp)
	movq	-48(%rbp), %rax
	leaq	1(%rax), %rdx
	movq	%rdx, -48(%rbp)
	movzbl	(%rax), %eax
	movzbl	%al, %eax
	movl	%eax, -116(%rbp)
	movl	-116(%rbp), %eax
	cltq
	negq	%rax
	movq	%rax, %rdx
	movq	-112(%rbp), %rax
	addq	%rdx, %rax
	movzbl	(%rax), %eax
	movzbl	%al, %eax
	movl	%eax, -120(%rbp)
	movl	-120(%rbp), %eax
	addl	%eax, -40(%rbp)
	movl	-120(%rbp), %eax
	imull	-116(%rbp), %eax
	addl	%eax, -68(%rbp)
	movq	-48(%rbp), %rax
	movzbl	(%rax), %eax
	movzbl	%al, %eax
	movl	%eax, -116(%rbp)
	movl	-116(%rbp), %eax
	cltq
	negq	%rax
	movq	%rax, %rdx
	movq	-112(%rbp), %rax
	addq	%rdx, %rax
	movzbl	(%rax), %eax
	movzbl	%al, %eax
	movl	%eax, -120(%rbp)
	movl	-120(%rbp), %eax
	addl	%eax, -40(%rbp)
	movl	-120(%rbp), %eax
	imull	-116(%rbp), %eax
	addl	%eax, -68(%rbp)
	movl	-148(%rbp), %eax
	cltq
	subq	$2, %rax
	addq	%rax, -48(%rbp)
	movq	-48(%rbp), %rax
	leaq	1(%rax), %rdx
	movq	%rdx, -48(%rbp)
	movzbl	(%rax), %eax
	movzbl	%al, %eax
	movl	%eax, -116(%rbp)
	movl	-116(%rbp), %eax
	cltq
	negq	%rax
	movq	%rax, %rdx
	movq	-112(%rbp), %rax
	addq	%rdx, %rax
	movzbl	(%rax), %eax
	movzbl	%al, %eax
	movl	%eax, -120(%rbp)
	movl	-120(%rbp), %eax
	addl	%eax, -40(%rbp)
	movl	-120(%rbp), %eax
	imull	-116(%rbp), %eax
	addl	%eax, -68(%rbp)
	movq	-48(%rbp), %rax
	leaq	1(%rax), %rdx
	movq	%rdx, -48(%rbp)
	movzbl	(%rax), %eax
	movzbl	%al, %eax
	movl	%eax, -116(%rbp)
	movl	-116(%rbp), %eax
	cltq
	negq	%rax
	movq	%rax, %rdx
	movq	-112(%rbp), %rax
	addq	%rdx, %rax
	movzbl	(%rax), %eax
	movzbl	%al, %eax
	movl	%eax, -120(%rbp)
	movl	-120(%rbp), %eax
	addl	%eax, -40(%rbp)
	movl	-120(%rbp), %eax
	imull	-116(%rbp), %eax
	addl	%eax, -68(%rbp)
	movq	-48(%rbp), %rax
	movzbl	(%rax), %eax
	movzbl	%al, %eax
	movl	%eax, -116(%rbp)
	movl	-116(%rbp), %eax
	cltq
	negq	%rax
	movq	%rax, %rdx
	movq	-112(%rbp), %rax
	addq	%rdx, %rax
	movzbl	(%rax), %eax
	movzbl	%al, %eax
	movl	%eax, -120(%rbp)
	movl	-120(%rbp), %eax
	addl	%eax, -40(%rbp)
	movl	-120(%rbp), %eax
	imull	-116(%rbp), %eax
	addl	%eax, -68(%rbp)
	movl	-40(%rbp), %eax
	subl	$100, %eax
	movl	%eax, -120(%rbp)
	cmpl	$0, -120(%rbp)
	jne	.L87
	movl	-148(%rbp), %ecx
	movq	-144(%rbp), %rax
	movq	-64(%rbp), %rbx
	leaq	1(%rbx), %rdx
	movq	%rdx, -64(%rbp)
	movl	-28(%rbp), %edx
	movl	-24(%rbp), %esi
	movq	%rax, %rdi
	movl	$0, %eax
	call	median
	movb	%al, (%rbx)
	jmp	.L88
.L87:
	movl	-104(%rbp), %eax
	imull	$-100, %eax, %edx
	movl	-68(%rbp), %eax
	addl	%edx, %eax
	cltd
	idivl	-120(%rbp)
	movl	%eax, %ecx
	movq	-64(%rbp), %rax
	leaq	1(%rax), %rdx
	movq	%rdx, -64(%rbp)
	movl	%ecx, %edx
	movb	%dl, (%rax)
.L88:
	addl	$1, -28(%rbp)
.L86:
	movl	-148(%rbp), %eax
	subl	$1, %eax
	cmpl	%eax, -28(%rbp)
	jl	.L89
	addl	$1, -24(%rbp)
.L85:
	movl	-152(%rbp), %eax
	subl	$1, %eax
	cmpl	%eax, -24(%rbp)
	jl	.L90
.L92:
	nop
	addq	$152, %rsp
	popq	%rbx
	popq	%rbp
	.cfi_def_cfa 7, 8
	ret
	.cfi_endproc
.LFE15:
	.size	susan_smoothing, .-susan_smoothing
	.globl	edge_draw
	.type	edge_draw, @function
edge_draw:
.LFB16:
	.cfi_startproc
	pushq	%rbp
	.cfi_def_cfa_offset 16
	.cfi_offset 6, -16
	movq	%rsp, %rbp
	.cfi_def_cfa_register 6
	movq	%rdi, -40(%rbp)
	movq	%rsi, -48(%rbp)
	movl	%edx, -52(%rbp)
	movl	%ecx, -56(%rbp)
	movl	%r8d, -60(%rbp)
	cmpl	$0, -60(%rbp)
	jne	.L94
	movq	-48(%rbp), %rax
	movq	%rax, -16(%rbp)
	movl	$0, -4(%rbp)
	jmp	.L95
.L97:
	movq	-16(%rbp), %rax
	movzbl	(%rax), %eax
	cmpb	$7, %al
	ja	.L96
	movq	-16(%rbp), %rax
	subq	-48(%rbp), %rax
	movq	%rax, %rdx
	movl	-52(%rbp), %eax
	cltq
	subq	%rax, %rdx
	movq	%rdx, %rax
	leaq	-1(%rax), %rdx
	movq	-40(%rbp), %rax
	addq	%rdx, %rax
	movq	%rax, -24(%rbp)
	movq	-24(%rbp), %rax
	leaq	1(%rax), %rdx
	movq	%rdx, -24(%rbp)
	movb	$-1, (%rax)
	movq	-24(%rbp), %rax
	leaq	1(%rax), %rdx
	movq	%rdx, -24(%rbp)
	movb	$-1, (%rax)
	movq	-24(%rbp), %rax
	movb	$-1, (%rax)
	movl	-52(%rbp), %eax
	cltq
	subq	$2, %rax
	addq	%rax, -24(%rbp)
	movq	-24(%rbp), %rax
	leaq	1(%rax), %rdx
	movq	%rdx, -24(%rbp)
	movb	$-1, (%rax)
	movq	-24(%rbp), %rax
	addq	$1, %rax
	movq	%rax, -24(%rbp)
	movq	-24(%rbp), %rax
	movb	$-1, (%rax)
	movl	-52(%rbp), %eax
	cltq
	subq	$2, %rax
	addq	%rax, -24(%rbp)
	movq	-24(%rbp), %rax
	leaq	1(%rax), %rdx
	movq	%rdx, -24(%rbp)
	movb	$-1, (%rax)
	movq	-24(%rbp), %rax
	leaq	1(%rax), %rdx
	movq	%rdx, -24(%rbp)
	movb	$-1, (%rax)
	movq	-24(%rbp), %rax
	movb	$-1, (%rax)
.L96:
	addq	$1, -16(%rbp)
	addl	$1, -4(%rbp)
.L95:
	movl	-52(%rbp), %eax
	imull	-56(%rbp), %eax
	cmpl	%eax, -4(%rbp)
	jl	.L97
.L94:
	movq	-48(%rbp), %rax
	movq	%rax, -16(%rbp)
	movl	$0, -4(%rbp)
	jmp	.L98
.L100:
	movq	-16(%rbp), %rax
	movzbl	(%rax), %eax
	cmpb	$7, %al
	ja	.L99
	movq	-16(%rbp), %rax
	subq	-48(%rbp), %rax
	movq	%rax, %rdx
	movq	-40(%rbp), %rax
	addq	%rdx, %rax
	movb	$0, (%rax)
.L99:
	addq	$1, -16(%rbp)
	addl	$1, -4(%rbp)
.L98:
	movl	-52(%rbp), %eax
	imull	-56(%rbp), %eax
	cmpl	%eax, -4(%rbp)
	jl	.L100
	nop
	popq	%rbp
	.cfi_def_cfa 7, 8
	ret
	.cfi_endproc
.LFE16:
	.size	edge_draw, .-edge_draw
	.globl	susan_thin
	.type	susan_thin, @function
susan_thin:
.LFB17:
	.cfi_startproc
	pushq	%rbp
	.cfi_def_cfa_offset 16
	.cfi_offset 6, -16
	movq	%rsp, %rbp
	.cfi_def_cfa_register 6
	subq	$32, %rsp
	movq	%rdi, -136(%rbp)
	movq	%rsi, -144(%rbp)
	movl	%edx, -148(%rbp)
	movl	%ecx, -152(%rbp)
	movl	$4, -24(%rbp)
	jmp	.L102
.L137:
	movl	$4, -28(%rbp)
	jmp	.L103
.L136:
	movl	-24(%rbp), %eax
	imull	-148(%rbp), %eax
	movl	%eax, %edx
	movl	-28(%rbp), %eax
	addl	%edx, %eax
	movslq	%eax, %rdx
	movq	-144(%rbp), %rax
	addq	%rdx, %rax
	movzbl	(%rax), %eax
	cmpb	$7, %al
	ja	.L104
	movl	-24(%rbp), %eax
	imull	-148(%rbp), %eax
	movl	%eax, %edx
	movl	-28(%rbp), %eax
	addl	%edx, %eax
	cltq
	leaq	0(,%rax,4), %rdx
	movq	-136(%rbp), %rax
	addq	%rdx, %rax
	movl	(%rax), %eax
	movl	%eax, -32(%rbp)
	movl	-24(%rbp), %eax
	subl	$1, %eax
	imull	-148(%rbp), %eax
	movslq	%eax, %rdx
	movl	-28(%rbp), %eax
	cltq
	addq	%rdx, %rax
	leaq	-1(%rax), %rdx
	movq	-144(%rbp), %rax
	addq	%rdx, %rax
	movq	%rax, -40(%rbp)
	movq	-40(%rbp), %rax
	movzbl	(%rax), %eax
	cmpb	$7, %al
	setbe	%al
	movzbl	%al, %edx
	movq	-40(%rbp), %rax
	addq	$1, %rax
	movzbl	(%rax), %eax
	cmpb	$7, %al
	setbe	%al
	movzbl	%al, %eax
	addl	%eax, %edx
	movq	-40(%rbp), %rax
	addq	$2, %rax
	movzbl	(%rax), %eax
	cmpb	$7, %al
	setbe	%al
	movzbl	%al, %eax
	leal	(%rdx,%rax), %ecx
	movl	-148(%rbp), %eax
	movslq	%eax, %rdx
	movq	-40(%rbp), %rax
	addq	%rdx, %rax
	movzbl	(%rax), %eax
	cmpb	$7, %al
	setbe	%al
	movzbl	%al, %eax
	leal	(%rcx,%rax), %edx
	movl	-148(%rbp), %eax
	cltq
	leaq	2(%rax), %rcx
	movq	-40(%rbp), %rax
	addq	%rcx, %rax
	movzbl	(%rax), %eax
	cmpb	$7, %al
	setbe	%al
	movzbl	%al, %eax
	addl	%eax, %edx
	movl	-148(%rbp), %eax
	cltq
	leaq	(%rax,%rax), %rcx
	movq	-40(%rbp), %rax
	addq	%rcx, %rax
	movzbl	(%rax), %eax
	cmpb	$7, %al
	setbe	%al
	movzbl	%al, %eax
	addl	%eax, %edx
	movl	-148(%rbp), %eax
	cltq
	addq	%rax, %rax
	leaq	1(%rax), %rcx
	movq	-40(%rbp), %rax
	addq	%rcx, %rax
	movzbl	(%rax), %eax
	cmpb	$7, %al
	setbe	%al
	movzbl	%al, %eax
	addl	%eax, %edx
	movl	-148(%rbp), %eax
	cltq
	addq	$1, %rax
	leaq	(%rax,%rax), %rcx
	movq	-40(%rbp), %rax
	addq	%rcx, %rax
	movzbl	(%rax), %eax
	cmpb	$7, %al
	setbe	%al
	movzbl	%al, %eax
	addl	%edx, %eax
	movl	%eax, -44(%rbp)
	cmpl	$0, -44(%rbp)
	jne	.L105
	movl	-24(%rbp), %eax
	imull	-148(%rbp), %eax
	movl	%eax, %edx
	movl	-28(%rbp), %eax
	addl	%edx, %eax
	movslq	%eax, %rdx
	movq	-144(%rbp), %rax
	addq	%rdx, %rax
	movb	$100, (%rax)
.L105:
	cmpl	$1, -44(%rbp)
	jne	.L106
	movl	-24(%rbp), %eax
	imull	-148(%rbp), %eax
	movl	%eax, %edx
	movl	-28(%rbp), %eax
	addl	%edx, %eax
	movslq	%eax, %rdx
	movq	-144(%rbp), %rax
	addq	%rdx, %rax
	movzbl	(%rax), %eax
	cmpb	$5, %al
	ja	.L106
	movl	-24(%rbp), %eax
	subl	$1, %eax
	imull	-148(%rbp), %eax
	movl	%eax, %edx
	movl	-28(%rbp), %eax
	addl	%edx, %eax
	cltq
	salq	$2, %rax
	leaq	-4(%rax), %rdx
	movq	-136(%rbp), %rax
	addq	%rdx, %rax
	movl	(%rax), %eax
	movl	%eax, -128(%rbp)
	movl	-24(%rbp), %eax
	subl	$1, %eax
	imull	-148(%rbp), %eax
	movl	%eax, %edx
	movl	-28(%rbp), %eax
	addl	%edx, %eax
	cltq
	leaq	0(,%rax,4), %rdx
	movq	-136(%rbp), %rax
	addq	%rdx, %rax
	movl	(%rax), %eax
	movl	%eax, -124(%rbp)
	movl	-24(%rbp), %eax
	subl	$1, %eax
	imull	-148(%rbp), %eax
	movl	%eax, %edx
	movl	-28(%rbp), %eax
	addl	%edx, %eax
	cltq
	addq	$1, %rax
	leaq	0(,%rax,4), %rdx
	movq	-136(%rbp), %rax
	addq	%rdx, %rax
	movl	(%rax), %eax
	movl	%eax, -120(%rbp)
	movl	-24(%rbp), %eax
	imull	-148(%rbp), %eax
	movl	%eax, %edx
	movl	-28(%rbp), %eax
	addl	%edx, %eax
	cltq
	salq	$2, %rax
	leaq	-4(%rax), %rdx
	movq	-136(%rbp), %rax
	addq	%rdx, %rax
	movl	(%rax), %eax
	movl	%eax, -116(%rbp)
	movl	$0, -112(%rbp)
	movl	-24(%rbp), %eax
	imull	-148(%rbp), %eax
	movl	%eax, %edx
	movl	-28(%rbp), %eax
	addl	%edx, %eax
	cltq
	addq	$1, %rax
	leaq	0(,%rax,4), %rdx
	movq	-136(%rbp), %rax
	addq	%rdx, %rax
	movl	(%rax), %eax
	movl	%eax, -108(%rbp)
	movl	-24(%rbp), %eax
	addl	$1, %eax
	imull	-148(%rbp), %eax
	movl	%eax, %edx
	movl	-28(%rbp), %eax
	addl	%edx, %eax
	cltq
	salq	$2, %rax
	leaq	-4(%rax), %rdx
	movq	-136(%rbp), %rax
	addq	%rdx, %rax
	movl	(%rax), %eax
	movl	%eax, -104(%rbp)
	movl	-24(%rbp), %eax
	addl	$1, %eax
	imull	-148(%rbp), %eax
	movl	%eax, %edx
	movl	-28(%rbp), %eax
	addl	%edx, %eax
	cltq
	leaq	0(,%rax,4), %rdx
	movq	-136(%rbp), %rax
	addq	%rdx, %rax
	movl	(%rax), %eax
	movl	%eax, -100(%rbp)
	movl	-24(%rbp), %eax
	addl	$1, %eax
	imull	-148(%rbp), %eax
	movl	%eax, %edx
	movl	-28(%rbp), %eax
	addl	%edx, %eax
	cltq
	addq	$1, %rax
	leaq	0(,%rax,4), %rdx
	movq	-136(%rbp), %rax
	addq	%rdx, %rax
	movl	(%rax), %eax
	movl	%eax, -96(%rbp)
	movl	-24(%rbp), %eax
	subl	$1, %eax
	imull	-148(%rbp), %eax
	movl	%eax, %edx
	movl	-28(%rbp), %eax
	addl	%edx, %eax
	cltq
	leaq	-1(%rax), %rdx
	movq	-144(%rbp), %rax
	addq	%rdx, %rax
	movzbl	(%rax), %eax
	cmpb	$7, %al
	ja	.L107
	movl	$0, -128(%rbp)
	movl	$0, -124(%rbp)
	movl	$0, -116(%rbp)
	movl	-120(%rbp), %eax
	addl	%eax, %eax
	movl	%eax, -120(%rbp)
	movl	-104(%rbp), %eax
	addl	%eax, %eax
	movl	%eax, -104(%rbp)
	movl	-108(%rbp), %edx
	movl	%edx, %eax
	addl	%eax, %eax
	addl	%edx, %eax
	movl	%eax, -108(%rbp)
	movl	-100(%rbp), %edx
	movl	%edx, %eax
	addl	%eax, %eax
	addl	%edx, %eax
	movl	%eax, -100(%rbp)
	movl	-96(%rbp), %eax
	sall	$2, %eax
	movl	%eax, -96(%rbp)
	jmp	.L108
.L107:
	movl	-24(%rbp), %eax
	subl	$1, %eax
	imull	-148(%rbp), %eax
	movl	%eax, %edx
	movl	-28(%rbp), %eax
	addl	%edx, %eax
	movslq	%eax, %rdx
	movq	-144(%rbp), %rax
	addq	%rdx, %rax
	movzbl	(%rax), %eax
	cmpb	$7, %al
	ja	.L109
	movl	$0, -124(%rbp)
	movl	$0, -128(%rbp)
	movl	$0, -120(%rbp)
	movl	-116(%rbp), %eax
	addl	%eax, %eax
	movl	%eax, -116(%rbp)
	movl	-108(%rbp), %eax
	addl	%eax, %eax
	movl	%eax, -108(%rbp)
	movl	-104(%rbp), %edx
	movl	%edx, %eax
	addl	%eax, %eax
	addl	%edx, %eax
	movl	%eax, -104(%rbp)
	movl	-96(%rbp), %edx
	movl	%edx, %eax
	addl	%eax, %eax
	addl	%edx, %eax
	movl	%eax, -96(%rbp)
	movl	-100(%rbp), %eax
	sall	$2, %eax
	movl	%eax, -100(%rbp)
	jmp	.L108
.L109:
	movl	-24(%rbp), %eax
	subl	$1, %eax
	imull	-148(%rbp), %eax
	movl	%eax, %edx
	movl	-28(%rbp), %eax
	addl	%edx, %eax
	cltq
	leaq	1(%rax), %rdx
	movq	-144(%rbp), %rax
	addq	%rdx, %rax
	movzbl	(%rax), %eax
	cmpb	$7, %al
	ja	.L110
	movl	$0, -120(%rbp)
	movl	$0, -124(%rbp)
	movl	$0, -108(%rbp)
	movl	-128(%rbp), %eax
	addl	%eax, %eax
	movl	%eax, -128(%rbp)
	movl	-96(%rbp), %eax
	addl	%eax, %eax
	movl	%eax, -96(%rbp)
	movl	-116(%rbp), %edx
	movl	%edx, %eax
	addl	%eax, %eax
	addl	%edx, %eax
	movl	%eax, -116(%rbp)
	movl	-100(%rbp), %edx
	movl	%edx, %eax
	addl	%eax, %eax
	addl	%edx, %eax
	movl	%eax, -100(%rbp)
	movl	-104(%rbp), %eax
	sall	$2, %eax
	movl	%eax, -104(%rbp)
	jmp	.L108
.L110:
	movl	-24(%rbp), %eax
	imull	-148(%rbp), %eax
	movl	%eax, %edx
	movl	-28(%rbp), %eax
	addl	%edx, %eax
	cltq
	leaq	-1(%rax), %rdx
	movq	-144(%rbp), %rax
	addq	%rdx, %rax
	movzbl	(%rax), %eax
	cmpb	$7, %al
	ja	.L111
	movl	$0, -116(%rbp)
	movl	$0, -128(%rbp)
	movl	$0, -104(%rbp)
	movl	-124(%rbp), %eax
	addl	%eax, %eax
	movl	%eax, -124(%rbp)
	movl	-100(%rbp), %eax
	addl	%eax, %eax
	movl	%eax, -100(%rbp)
	movl	-120(%rbp), %edx
	movl	%edx, %eax
	addl	%eax, %eax
	addl	%edx, %eax
	movl	%eax, -120(%rbp)
	movl	-96(%rbp), %edx
	movl	%edx, %eax
	addl	%eax, %eax
	addl	%edx, %eax
	movl	%eax, -96(%rbp)
	movl	-108(%rbp), %eax
	sall	$2, %eax
	movl	%eax, -108(%rbp)
	jmp	.L108
.L111:
	movl	-24(%rbp), %eax
	imull	-148(%rbp), %eax
	movl	%eax, %edx
	movl	-28(%rbp), %eax
	addl	%edx, %eax
	cltq
	leaq	1(%rax), %rdx
	movq	-144(%rbp), %rax
	addq	%rdx, %rax
	movzbl	(%rax), %eax
	cmpb	$7, %al
	ja	.L112
	movl	$0, -108(%rbp)
	movl	$0, -120(%rbp)
	movl	$0, -96(%rbp)
	movl	-124(%rbp), %eax
	addl	%eax, %eax
	movl	%eax, -124(%rbp)
	movl	-100(%rbp), %eax
	addl	%eax, %eax
	movl	%eax, -100(%rbp)
	movl	-128(%rbp), %edx
	movl	%edx, %eax
	addl	%eax, %eax
	addl	%edx, %eax
	movl	%eax, -128(%rbp)
	movl	-104(%rbp), %edx
	movl	%edx, %eax
	addl	%eax, %eax
	addl	%edx, %eax
	movl	%eax, -104(%rbp)
	movl	-116(%rbp), %eax
	sall	$2, %eax
	movl	%eax, -116(%rbp)
	jmp	.L108
.L112:
	movl	-24(%rbp), %eax
	addl	$1, %eax
	imull	-148(%rbp), %eax
	movl	%eax, %edx
	movl	-28(%rbp), %eax
	addl	%edx, %eax
	cltq
	leaq	-1(%rax), %rdx
	movq	-144(%rbp), %rax
	addq	%rdx, %rax
	movzbl	(%rax), %eax
	cmpb	$7, %al
	ja	.L113
	movl	$0, -104(%rbp)
	movl	$0, -116(%rbp)
	movl	$0, -100(%rbp)
	movl	-128(%rbp), %eax
	addl	%eax, %eax
	movl	%eax, -128(%rbp)
	movl	-96(%rbp), %eax
	addl	%eax, %eax
	movl	%eax, -96(%rbp)
	movl	-124(%rbp), %edx
	movl	%edx, %eax
	addl	%eax, %eax
	addl	%edx, %eax
	movl	%eax, -124(%rbp)
	movl	-108(%rbp), %edx
	movl	%edx, %eax
	addl	%eax, %eax
	addl	%edx, %eax
	movl	%eax, -108(%rbp)
	movl	-120(%rbp), %eax
	sall	$2, %eax
	movl	%eax, -120(%rbp)
	jmp	.L108
.L113:
	movl	-24(%rbp), %eax
	addl	$1, %eax
	imull	-148(%rbp), %eax
	movl	%eax, %edx
	movl	-28(%rbp), %eax
	addl	%edx, %eax
	movslq	%eax, %rdx
	movq	-144(%rbp), %rax
	addq	%rdx, %rax
	movzbl	(%rax), %eax
	cmpb	$7, %al
	ja	.L114
	movl	$0, -100(%rbp)
	movl	$0, -104(%rbp)
	movl	$0, -96(%rbp)
	movl	-116(%rbp), %eax
	addl	%eax, %eax
	movl	%eax, -116(%rbp)
	movl	-108(%rbp), %eax
	addl	%eax, %eax
	movl	%eax, -108(%rbp)
	movl	-128(%rbp), %edx
	movl	%edx, %eax
	addl	%eax, %eax
	addl	%edx, %eax
	movl	%eax, -128(%rbp)
	movl	-120(%rbp), %edx
	movl	%edx, %eax
	addl	%eax, %eax
	addl	%edx, %eax
	movl	%eax, -120(%rbp)
	movl	-124(%rbp), %eax
	sall	$2, %eax
	movl	%eax, -124(%rbp)
	jmp	.L108
.L114:
	movl	-24(%rbp), %eax
	addl	$1, %eax
	imull	-148(%rbp), %eax
	movl	%eax, %edx
	movl	-28(%rbp), %eax
	addl	%edx, %eax
	cltq
	leaq	1(%rax), %rdx
	movq	-144(%rbp), %rax
	addq	%rdx, %rax
	movzbl	(%rax), %eax
	cmpb	$7, %al
	ja	.L108
	movl	$0, -96(%rbp)
	movl	$0, -108(%rbp)
	movl	$0, -100(%rbp)
	movl	-104(%rbp), %eax
	addl	%eax, %eax
	movl	%eax, -104(%rbp)
	movl	-120(%rbp), %eax
	addl	%eax, %eax
	movl	%eax, -120(%rbp)
	movl	-124(%rbp), %edx
	movl	%edx, %eax
	addl	%eax, %eax
	addl	%edx, %eax
	movl	%eax, -124(%rbp)
	movl	-116(%rbp), %edx
	movl	%edx, %eax
	addl	%eax, %eax
	addl	%edx, %eax
	movl	%eax, -116(%rbp)
	movl	-128(%rbp), %eax
	sall	$2, %eax
	movl	%eax, -128(%rbp)
.L108:
	movl	$0, -4(%rbp)
	movl	$0, -20(%rbp)
	jmp	.L115
.L119:
	movl	$0, -16(%rbp)
	jmp	.L116
.L118:
	movl	-20(%rbp), %edx
	movl	%edx, %eax
	addl	%eax, %eax
	addl	%eax, %edx
	movl	-16(%rbp), %eax
	addl	%edx, %eax
	cltq
	movl	-128(%rbp,%rax,4), %eax
	cmpl	%eax, -4(%rbp)
	jge	.L117
	movl	-20(%rbp), %edx
	movl	%edx, %eax
	addl	%eax, %eax
	addl	%eax, %edx
	movl	-16(%rbp), %eax
	addl	%edx, %eax
	cltq
	movl	-128(%rbp,%rax,4), %eax
	movl	%eax, -4(%rbp)
	movl	-20(%rbp), %eax
	movl	%eax, -8(%rbp)
	movl	-16(%rbp), %eax
	movl	%eax, -12(%rbp)
.L117:
	addl	$1, -16(%rbp)
.L116:
	cmpl	$2, -16(%rbp)
	jle	.L118
	addl	$1, -20(%rbp)
.L115:
	cmpl	$2, -20(%rbp)
	jle	.L119
	cmpl	$0, -4(%rbp)
	jle	.L106
	movl	-24(%rbp), %eax
	imull	-148(%rbp), %eax
	movl	%eax, %edx
	movl	-28(%rbp), %eax
	addl	%edx, %eax
	movslq	%eax, %rdx
	movq	-144(%rbp), %rax
	addq	%rdx, %rax
	movzbl	(%rax), %eax
	cmpb	$3, %al
	ja	.L120
	movl	-24(%rbp), %edx
	movl	-8(%rbp), %eax
	addl	%edx, %eax
	subl	$1, %eax
	imull	-148(%rbp), %eax
	movl	%eax, %edx
	movl	-28(%rbp), %eax
	addl	%eax, %edx
	movl	-12(%rbp), %eax
	addl	%edx, %eax
	cltq
	leaq	-1(%rax), %rdx
	movq	-144(%rbp), %rax
	addq	%rdx, %rax
	movb	$4, (%rax)
	jmp	.L121
.L120:
	movl	-24(%rbp), %eax
	imull	-148(%rbp), %eax
	movl	%eax, %edx
	movl	-28(%rbp), %eax
	addl	%edx, %eax
	movslq	%eax, %rdx
	movq	-144(%rbp), %rax
	addq	%rdx, %rax
	movzbl	(%rax), %edx
	movl	-24(%rbp), %ecx
	movl	-8(%rbp), %eax
	addl	%ecx, %eax
	subl	$1, %eax
	imull	-148(%rbp), %eax
	movl	%eax, %ecx
	movl	-28(%rbp), %eax
	addl	%eax, %ecx
	movl	-12(%rbp), %eax
	addl	%ecx, %eax
	cltq
	leaq	-1(%rax), %rcx
	movq	-144(%rbp), %rax
	addq	%rcx, %rax
	addl	$1, %edx
	movb	%dl, (%rax)
.L121:
	movl	-8(%rbp), %eax
	leal	(%rax,%rax), %edx
	movl	-12(%rbp), %eax
	addl	%edx, %eax
	cmpl	$2, %eax
	jg	.L106
	movl	-8(%rbp), %eax
	subl	$1, %eax
	addl	%eax, -24(%rbp)
	movl	-12(%rbp), %eax
	subl	$2, %eax
	addl	%eax, -28(%rbp)
	cmpl	$3, -24(%rbp)
	jg	.L122
	movl	$4, -24(%rbp)
.L122:
	cmpl	$3, -28(%rbp)
	jg	.L106
	movl	$4, -28(%rbp)
.L106:
	cmpl	$2, -44(%rbp)
	jne	.L123
	movl	-24(%rbp), %eax
	subl	$1, %eax
	imull	-148(%rbp), %eax
	movl	%eax, %edx
	movl	-28(%rbp), %eax
	addl	%edx, %eax
	cltq
	leaq	-1(%rax), %rdx
	movq	-144(%rbp), %rax
	addq	%rdx, %rax
	movzbl	(%rax), %eax
	cmpb	$7, %al
	setbe	%al
	movzbl	%al, %eax
	movl	%eax, -48(%rbp)
	movl	-24(%rbp), %eax
	subl	$1, %eax
	imull	-148(%rbp), %eax
	movl	%eax, %edx
	movl	-28(%rbp), %eax
	addl	%edx, %eax
	cltq
	leaq	1(%rax), %rdx
	movq	-144(%rbp), %rax
	addq	%rdx, %rax
	movzbl	(%rax), %eax
	cmpb	$7, %al
	setbe	%al
	movzbl	%al, %eax
	movl	%eax, -52(%rbp)
	movl	-24(%rbp), %eax
	addl	$1, %eax
	imull	-148(%rbp), %eax
	movl	%eax, %edx
	movl	-28(%rbp), %eax
	addl	%edx, %eax
	cltq
	leaq	-1(%rax), %rdx
	movq	-144(%rbp), %rax
	addq	%rdx, %rax
	movzbl	(%rax), %eax
	cmpb	$7, %al
	setbe	%al
	movzbl	%al, %eax
	movl	%eax, -56(%rbp)
	movl	-24(%rbp), %eax
	addl	$1, %eax
	imull	-148(%rbp), %eax
	movl	%eax, %edx
	movl	-28(%rbp), %eax
	addl	%edx, %eax
	cltq
	leaq	1(%rax), %rdx
	movq	-144(%rbp), %rax
	addq	%rdx, %rax
	movzbl	(%rax), %eax
	cmpb	$7, %al
	setbe	%al
	movzbl	%al, %eax
	movl	%eax, -60(%rbp)
	movl	-48(%rbp), %edx
	movl	-52(%rbp), %eax
	addl	%eax, %edx
	movl	-56(%rbp), %eax
	addl	%eax, %edx
	movl	-60(%rbp), %eax
	addl	%edx, %eax
	cmpl	$2, %eax
	jne	.L124
	movl	-48(%rbp), %eax
	orl	-60(%rbp), %eax
	movl	%eax, %edx
	movl	-52(%rbp), %eax
	orl	-56(%rbp), %eax
	andl	%edx, %eax
	testl	%eax, %eax
	je	.L124
	cmpl	$0, -48(%rbp)
	je	.L125
	cmpl	$0, -52(%rbp)
	je	.L126
	movl	$0, -16(%rbp)
	movl	$-1, -20(%rbp)
	jmp	.L128
.L126:
	movl	$-1, -16(%rbp)
	movl	$0, -20(%rbp)
	jmp	.L128
.L125:
	cmpl	$0, -52(%rbp)
	je	.L129
	movl	$1, -16(%rbp)
	movl	$0, -20(%rbp)
	jmp	.L128
.L129:
	movl	$0, -16(%rbp)
	movl	$1, -20(%rbp)
.L128:
	movl	-24(%rbp), %edx
	movl	-20(%rbp), %eax
	addl	%edx, %eax
	imull	-148(%rbp), %eax
	movl	%eax, %edx
	movl	-28(%rbp), %eax
	addl	%eax, %edx
	movl	-16(%rbp), %eax
	addl	%edx, %eax
	cltq
	leaq	0(,%rax,4), %rdx
	movq	-136(%rbp), %rax
	addq	%rdx, %rax
	movl	(%rax), %eax
	cvtsi2ss	%eax, %xmm0
	cvtsi2ss	-32(%rbp), %xmm1
	divss	%xmm1, %xmm0
	cvtss2sd	%xmm0, %xmm0
	comisd	.LC33(%rip), %xmm0
	jbe	.L139
	cmpl	$0, -16(%rbp)
	jne	.L132
	movl	-20(%rbp), %eax
	leal	(%rax,%rax), %edx
	movl	-24(%rbp), %eax
	addl	%edx, %eax
	imull	-148(%rbp), %eax
	movl	%eax, %edx
	movl	-28(%rbp), %eax
	addl	%edx, %eax
	movslq	%eax, %rdx
	movq	-144(%rbp), %rax
	addq	%rdx, %rax
	movzbl	(%rax), %eax
	cmpb	$7, %al
	jbe	.L132
	movl	-20(%rbp), %eax
	leal	(%rax,%rax), %edx
	movl	-24(%rbp), %eax
	addl	%edx, %eax
	imull	-148(%rbp), %eax
	movl	%eax, %edx
	movl	-28(%rbp), %eax
	addl	%edx, %eax
	cltq
	leaq	-1(%rax), %rdx
	movq	-144(%rbp), %rax
	addq	%rdx, %rax
	movzbl	(%rax), %eax
	cmpb	$7, %al
	jbe	.L132
	movl	-20(%rbp), %eax
	leal	(%rax,%rax), %edx
	movl	-24(%rbp), %eax
	addl	%edx, %eax
	imull	-148(%rbp), %eax
	movl	%eax, %edx
	movl	-28(%rbp), %eax
	addl	%edx, %eax
	cltq
	leaq	1(%rax), %rdx
	movq	-144(%rbp), %rax
	addq	%rdx, %rax
	movzbl	(%rax), %eax
	cmpb	$7, %al
	ja	.L133
.L132:
	cmpl	$0, -20(%rbp)
	jne	.L139
	movl	-24(%rbp), %eax
	imull	-148(%rbp), %eax
	movl	%eax, %edx
	movl	-28(%rbp), %eax
	addl	%eax, %edx
	movl	-16(%rbp), %eax
	addl	%eax, %eax
	addl	%edx, %eax
	movslq	%eax, %rdx
	movq	-144(%rbp), %rax
	addq	%rdx, %rax
	movzbl	(%rax), %eax
	cmpb	$7, %al
	jbe	.L139
	movl	-24(%rbp), %eax
	addl	$1, %eax
	imull	-148(%rbp), %eax
	movl	%eax, %edx
	movl	-28(%rbp), %eax
	addl	%eax, %edx
	movl	-16(%rbp), %eax
	addl	%eax, %eax
	addl	%edx, %eax
	movslq	%eax, %rdx
	movq	-144(%rbp), %rax
	addq	%rdx, %rax
	movzbl	(%rax), %eax
	cmpb	$7, %al
	jbe	.L139
	movl	-24(%rbp), %eax
	subl	$1, %eax
	imull	-148(%rbp), %eax
	movl	%eax, %edx
	movl	-28(%rbp), %eax
	addl	%eax, %edx
	movl	-16(%rbp), %eax
	addl	%eax, %eax
	addl	%edx, %eax
	movslq	%eax, %rdx
	movq	-144(%rbp), %rax
	addq	%rdx, %rax
	movzbl	(%rax), %eax
	cmpb	$7, %al
	jbe	.L139
.L133:
	movl	-24(%rbp), %eax
	imull	-148(%rbp), %eax
	movl	%eax, %edx
	movl	-28(%rbp), %eax
	addl	%edx, %eax
	movslq	%eax, %rdx
	movq	-144(%rbp), %rax
	addq	%rdx, %rax
	movb	$100, (%rax)
	movl	-24(%rbp), %edx
	movl	-20(%rbp), %eax
	addl	%edx, %eax
	imull	-148(%rbp), %eax
	movl	%eax, %edx
	movl	-28(%rbp), %eax
	addl	%eax, %edx
	movl	-16(%rbp), %eax
	addl	%edx, %eax
	movslq	%eax, %rdx
	movq	-144(%rbp), %rax
	addq	%rdx, %rax
	movb	$3, (%rax)
	jmp	.L139
.L124:
	movl	-24(%rbp), %eax
	subl	$1, %eax
	imull	-148(%rbp), %eax
	movl	%eax, %edx
	movl	-28(%rbp), %eax
	addl	%edx, %eax
	movslq	%eax, %rdx
	movq	-144(%rbp), %rax
	addq	%rdx, %rax
	movzbl	(%rax), %eax
	cmpb	$7, %al
	setbe	%al
	movzbl	%al, %eax
	movl	%eax, -64(%rbp)
	movl	-24(%rbp), %eax
	imull	-148(%rbp), %eax
	movl	%eax, %edx
	movl	-28(%rbp), %eax
	addl	%edx, %eax
	cltq
	leaq	1(%rax), %rdx
	movq	-144(%rbp), %rax
	addq	%rdx, %rax
	movzbl	(%rax), %eax
	cmpb	$7, %al
	setbe	%al
	movzbl	%al, %eax
	movl	%eax, -68(%rbp)
	movl	-24(%rbp), %eax
	addl	$1, %eax
	imull	-148(%rbp), %eax
	movl	%eax, %edx
	movl	-28(%rbp), %eax
	addl	%edx, %eax
	movslq	%eax, %rdx
	movq	-144(%rbp), %rax
	addq	%rdx, %rax
	movzbl	(%rax), %eax
	cmpb	$7, %al
	setbe	%al
	movzbl	%al, %eax
	movl	%eax, -72(%rbp)
	movl	-24(%rbp), %eax
	imull	-148(%rbp), %eax
	movl	%eax, %edx
	movl	-28(%rbp), %eax
	addl	%edx, %eax
	cltq
	leaq	-1(%rax), %rdx
	movq	-144(%rbp), %rax
	addq	%rdx, %rax
	movzbl	(%rax), %eax
	cmpb	$7, %al
	setbe	%al
	movzbl	%al, %eax
	movl	%eax, -76(%rbp)
	movl	-64(%rbp), %edx
	movl	-68(%rbp), %eax
	addl	%eax, %edx
	movl	-72(%rbp), %eax
	addl	%eax, %edx
	movl	-76(%rbp), %eax
	addl	%edx, %eax
	cmpl	$2, %eax
	jne	.L123
	movl	-76(%rbp), %eax
	orl	-68(%rbp), %eax
	movl	%eax, %edx
	movl	-64(%rbp), %eax
	orl	-72(%rbp), %eax
	andl	%edx, %eax
	testl	%eax, %eax
	je	.L123
	movl	-24(%rbp), %eax
	subl	$2, %eax
	imull	-148(%rbp), %eax
	movl	%eax, %edx
	movl	-28(%rbp), %eax
	addl	%edx, %eax
	cltq
	leaq	-1(%rax), %rdx
	movq	-144(%rbp), %rax
	addq	%rdx, %rax
	movzbl	(%rax), %eax
	cmpb	$7, %al
	setbe	%cl
	movl	-24(%rbp), %eax
	subl	$2, %eax
	imull	-148(%rbp), %eax
	movl	%eax, %edx
	movl	-28(%rbp), %eax
	addl	%edx, %eax
	cltq
	leaq	1(%rax), %rdx
	movq	-144(%rbp), %rax
	addq	%rdx, %rax
	movzbl	(%rax), %eax
	cmpb	$7, %al
	setbe	%al
	orl	%ecx, %eax
	movzbl	%al, %eax
	andl	-64(%rbp), %eax
	movl	%eax, %edx
	movl	-24(%rbp), %eax
	subl	$1, %eax
	imull	-148(%rbp), %eax
	movl	%eax, %ecx
	movl	-28(%rbp), %eax
	addl	%ecx, %eax
	cltq
	leaq	-2(%rax), %rcx
	movq	-144(%rbp), %rax
	addq	%rcx, %rax
	movzbl	(%rax), %eax
	cmpb	$7, %al
	setbe	%sil
	movl	-24(%rbp), %eax
	addl	$1, %eax
	imull	-148(%rbp), %eax
	movl	%eax, %ecx
	movl	-28(%rbp), %eax
	addl	%ecx, %eax
	cltq
	leaq	-2(%rax), %rcx
	movq	-144(%rbp), %rax
	addq	%rcx, %rax
	movzbl	(%rax), %eax
	cmpb	$7, %al
	setbe	%al
	orl	%esi, %eax
	movzbl	%al, %eax
	andl	-76(%rbp), %eax
	movl	%edx, %ecx
	orl	%eax, %ecx
	movl	-24(%rbp), %eax
	subl	$1, %eax
	imull	-148(%rbp), %eax
	movl	%eax, %edx
	movl	-28(%rbp), %eax
	addl	%edx, %eax
	cltq
	leaq	2(%rax), %rdx
	movq	-144(%rbp), %rax
	addq	%rdx, %rax
	movzbl	(%rax), %eax
	cmpb	$7, %al
	setbe	%sil
	movl	-24(%rbp), %eax
	addl	$1, %eax
	imull	-148(%rbp), %eax
	movl	%eax, %edx
	movl	-28(%rbp), %eax
	addl	%edx, %eax
	cltq
	leaq	2(%rax), %rdx
	movq	-144(%rbp), %rax
	addq	%rdx, %rax
	movzbl	(%rax), %eax
	cmpb	$7, %al
	setbe	%al
	orl	%esi, %eax
	movzbl	%al, %eax
	andl	-68(%rbp), %eax
	orl	%eax, %ecx
	movl	-24(%rbp), %eax
	addl	$2, %eax
	imull	-148(%rbp), %eax
	movl	%eax, %edx
	movl	-28(%rbp), %eax
	addl	%edx, %eax
	cltq
	leaq	-1(%rax), %rdx
	movq	-144(%rbp), %rax
	addq	%rdx, %rax
	movzbl	(%rax), %eax
	cmpb	$7, %al
	setbe	%sil
	movl	-24(%rbp), %eax
	addl	$2, %eax
	imull	-148(%rbp), %eax
	movl	%eax, %edx
	movl	-28(%rbp), %eax
	addl	%edx, %eax
	cltq
	leaq	1(%rax), %rdx
	movq	-144(%rbp), %rax
	addq	%rdx, %rax
	movzbl	(%rax), %eax
	cmpb	$7, %al
	setbe	%al
	orl	%esi, %eax
	movzbl	%al, %eax
	andl	-72(%rbp), %eax
	orl	%ecx, %eax
	testl	%eax, %eax
	je	.L123
	movl	-24(%rbp), %eax
	imull	-148(%rbp), %eax
	movl	%eax, %edx
	movl	-28(%rbp), %eax
	addl	%edx, %eax
	movslq	%eax, %rdx
	movq	-144(%rbp), %rax
	addq	%rdx, %rax
	movb	$100, (%rax)
	subl	$1, -24(%rbp)
	subl	$2, -28(%rbp)
	cmpl	$3, -24(%rbp)
	jg	.L134
	movl	$4, -24(%rbp)
.L134:
	cmpl	$3, -28(%rbp)
	jg	.L123
	movl	$4, -28(%rbp)
	jmp	.L123
.L139:
	nop
.L123:
	cmpl	$2, -44(%rbp)
	jle	.L104
	movl	-24(%rbp), %eax
	subl	$1, %eax
	imull	-148(%rbp), %eax
	movl	%eax, %edx
	movl	-28(%rbp), %eax
	addl	%edx, %eax
	movslq	%eax, %rdx
	movq	-144(%rbp), %rax
	addq	%rdx, %rax
	movzbl	(%rax), %eax
	cmpb	$7, %al
	setbe	%al
	movzbl	%al, %eax
	movl	%eax, -64(%rbp)
	movl	-24(%rbp), %eax
	imull	-148(%rbp), %eax
	movl	%eax, %edx
	movl	-28(%rbp), %eax
	addl	%edx, %eax
	cltq
	leaq	1(%rax), %rdx
	movq	-144(%rbp), %rax
	addq	%rdx, %rax
	movzbl	(%rax), %eax
	cmpb	$7, %al
	setbe	%al
	movzbl	%al, %eax
	movl	%eax, -68(%rbp)
	movl	-24(%rbp), %eax
	addl	$1, %eax
	imull	-148(%rbp), %eax
	movl	%eax, %edx
	movl	-28(%rbp), %eax
	addl	%edx, %eax
	movslq	%eax, %rdx
	movq	-144(%rbp), %rax
	addq	%rdx, %rax
	movzbl	(%rax), %eax
	cmpb	$7, %al
	setbe	%al
	movzbl	%al, %eax
	movl	%eax, -72(%rbp)
	movl	-24(%rbp), %eax
	imull	-148(%rbp), %eax
	movl	%eax, %edx
	movl	-28(%rbp), %eax
	addl	%edx, %eax
	cltq
	leaq	-1(%rax), %rdx
	movq	-144(%rbp), %rax
	addq	%rdx, %rax
	movzbl	(%rax), %eax
	cmpb	$7, %al
	setbe	%al
	movzbl	%al, %eax
	movl	%eax, -76(%rbp)
	movl	-64(%rbp), %edx
	movl	-68(%rbp), %eax
	addl	%eax, %edx
	movl	-72(%rbp), %eax
	addl	%eax, %edx
	movl	-76(%rbp), %eax
	addl	%edx, %eax
	cmpl	$1, %eax
	jle	.L104
	movl	-24(%rbp), %eax
	subl	$1, %eax
	imull	-148(%rbp), %eax
	movl	%eax, %edx
	movl	-28(%rbp), %eax
	addl	%edx, %eax
	cltq
	leaq	-1(%rax), %rdx
	movq	-144(%rbp), %rax
	addq	%rdx, %rax
	movzbl	(%rax), %eax
	cmpb	$7, %al
	setbe	%al
	movzbl	%al, %eax
	movl	%eax, -48(%rbp)
	movl	-24(%rbp), %eax
	subl	$1, %eax
	imull	-148(%rbp), %eax
	movl	%eax, %edx
	movl	-28(%rbp), %eax
	addl	%edx, %eax
	cltq
	leaq	1(%rax), %rdx
	movq	-144(%rbp), %rax
	addq	%rdx, %rax
	movzbl	(%rax), %eax
	cmpb	$7, %al
	setbe	%al
	movzbl	%al, %eax
	movl	%eax, -52(%rbp)
	movl	-24(%rbp), %eax
	addl	$1, %eax
	imull	-148(%rbp), %eax
	movl	%eax, %edx
	movl	-28(%rbp), %eax
	addl	%edx, %eax
	cltq
	leaq	-1(%rax), %rdx
	movq	-144(%rbp), %rax
	addq	%rdx, %rax
	movzbl	(%rax), %eax
	cmpb	$7, %al
	setbe	%al
	movzbl	%al, %eax
	movl	%eax, -56(%rbp)
	movl	-24(%rbp), %eax
	addl	$1, %eax
	imull	-148(%rbp), %eax
	movl	%eax, %edx
	movl	-28(%rbp), %eax
	addl	%edx, %eax
	cltq
	leaq	1(%rax), %rdx
	movq	-144(%rbp), %rax
	addq	%rdx, %rax
	movzbl	(%rax), %eax
	cmpb	$7, %al
	setbe	%al
	movzbl	%al, %eax
	movl	%eax, -60(%rbp)
	movl	-48(%rbp), %eax
	orl	-64(%rbp), %eax
	movl	%eax, -80(%rbp)
	movl	-52(%rbp), %eax
	orl	-68(%rbp), %eax
	movl	%eax, -84(%rbp)
	movl	-60(%rbp), %eax
	orl	-72(%rbp), %eax
	movl	%eax, -88(%rbp)
	movl	-56(%rbp), %eax
	orl	-76(%rbp), %eax
	movl	%eax, -92(%rbp)
	movl	-80(%rbp), %edx
	movl	-84(%rbp), %eax
	addl	%eax, %edx
	movl	-88(%rbp), %eax
	addl	%eax, %edx
	movl	-92(%rbp), %eax
	leal	(%rdx,%rax), %ecx
	movl	-64(%rbp), %eax
	andl	-84(%rbp), %eax
	movl	%eax, %edx
	movl	-68(%rbp), %eax
	andl	-88(%rbp), %eax
	addl	%eax, %edx
	movl	-72(%rbp), %eax
	andl	-92(%rbp), %eax
	addl	%eax, %edx
	movl	-76(%rbp), %eax
	andl	-80(%rbp), %eax
	addl	%edx, %eax
	subl	%eax, %ecx
	movl	%ecx, %eax
	cmpl	$1, %eax
	jg	.L104
	movl	-24(%rbp), %eax
	imull	-148(%rbp), %eax
	movl	%eax, %edx
	movl	-28(%rbp), %eax
	addl	%edx, %eax
	movslq	%eax, %rdx
	movq	-144(%rbp), %rax
	addq	%rdx, %rax
	movb	$100, (%rax)
	subl	$1, -24(%rbp)
	subl	$2, -28(%rbp)
	cmpl	$3, -24(%rbp)
	jg	.L135
	movl	$4, -24(%rbp)
.L135:
	cmpl	$3, -28(%rbp)
	jg	.L104
	movl	$4, -28(%rbp)
.L104:
	addl	$1, -28(%rbp)
.L103:
	movl	-148(%rbp), %eax
	subl	$4, %eax
	cmpl	%eax, -28(%rbp)
	jl	.L136
	addl	$1, -24(%rbp)
.L102:
	movl	-152(%rbp), %eax
	subl	$4, %eax
	cmpl	%eax, -24(%rbp)
	jl	.L137
	nop
	leave
	.cfi_def_cfa 7, 8
	ret
	.cfi_endproc
.LFE17:
	.size	susan_thin, .-susan_thin
	.globl	susan_edges
	.type	susan_edges, @function
susan_edges:
.LFB18:
	.cfi_startproc
	pushq	%rbp
	.cfi_def_cfa_offset 16
	.cfi_offset 6, -16
	movq	%rsp, %rbp
	.cfi_def_cfa_register 6
	subq	$112, %rsp
	movq	%rdi, -72(%rbp)
	movq	%rsi, -80(%rbp)
	movq	%rdx, -88(%rbp)
	movq	%rcx, -96(%rbp)
	movl	%r8d, -100(%rbp)
	movl	%r9d, -104(%rbp)
	movl	-104(%rbp), %eax
	imull	16(%rbp), %eax
	cltq
	leaq	0(,%rax,4), %rdx
	movq	-80(%rbp), %rax
	movl	$0, %esi
	movq	%rax, %rdi
	call	memset@PLT
	movl	$3, -12(%rbp)
	jmp	.L141
.L145:
	movl	$3, -16(%rbp)
	jmp	.L142
.L144:
	movl	$100, -32(%rbp)
	movl	-12(%rbp), %eax
	subl	$3, %eax
	imull	-104(%rbp), %eax
	movslq	%eax, %rdx
	movl	-16(%rbp), %eax
	cltq
	addq	%rdx, %rax
	leaq	-1(%rax), %rdx
	movq	-72(%rbp), %rax
	addq	%rdx, %rax
	movq	%rax, -40(%rbp)
	movl	-12(%rbp), %eax
	imull	-104(%rbp), %eax
	movl	%eax, %edx
	movl	-16(%rbp), %eax
	addl	%edx, %eax
	movslq	%eax, %rdx
	movq	-72(%rbp), %rax
	addq	%rdx, %rax
	movzbl	(%rax), %eax
	movzbl	%al, %edx
	movq	-96(%rbp), %rax
	addq	%rdx, %rax
	movq	%rax, -48(%rbp)
	movq	-40(%rbp), %rax
	leaq	1(%rax), %rdx
	movq	%rdx, -40(%rbp)
	movzbl	(%rax), %eax
	movzbl	%al, %eax
	negq	%rax
	movq	%rax, %rdx
	movq	-48(%rbp), %rax
	addq	%rdx, %rax
	movzbl	(%rax), %eax
	movzbl	%al, %eax
	addl	%eax, -32(%rbp)
	movq	-40(%rbp), %rax
	leaq	1(%rax), %rdx
	movq	%rdx, -40(%rbp)
	movzbl	(%rax), %eax
	movzbl	%al, %eax
	negq	%rax
	movq	%rax, %rdx
	movq	-48(%rbp), %rax
	addq	%rdx, %rax
	movzbl	(%rax), %eax
	movzbl	%al, %eax
	addl	%eax, -32(%rbp)
	movq	-40(%rbp), %rax
	movzbl	(%rax), %eax
	movzbl	%al, %eax
	negq	%rax
	movq	%rax, %rdx
	movq	-48(%rbp), %rax
	addq	%rdx, %rax
	movzbl	(%rax), %eax
	movzbl	%al, %eax
	addl	%eax, -32(%rbp)
	movl	-104(%rbp), %eax
	cltq
	subq	$3, %rax
	addq	%rax, -40(%rbp)
	movq	-40(%rbp), %rax
	leaq	1(%rax), %rdx
	movq	%rdx, -40(%rbp)
	movzbl	(%rax), %eax
	movzbl	%al, %eax
	negq	%rax
	movq	%rax, %rdx
	movq	-48(%rbp), %rax
	addq	%rdx, %rax
	movzbl	(%rax), %eax
	movzbl	%al, %eax
	addl	%eax, -32(%rbp)
	movq	-40(%rbp), %rax
	leaq	1(%rax), %rdx
	movq	%rdx, -40(%rbp)
	movzbl	(%rax), %eax
	movzbl	%al, %eax
	negq	%rax
	movq	%rax, %rdx
	movq	-48(%rbp), %rax
	addq	%rdx, %rax
	movzbl	(%rax), %eax
	movzbl	%al, %eax
	addl	%eax, -32(%rbp)
	movq	-40(%rbp), %rax
	leaq	1(%rax), %rdx
	movq	%rdx, -40(%rbp)
	movzbl	(%rax), %eax
	movzbl	%al, %eax
	negq	%rax
	movq	%rax, %rdx
	movq	-48(%rbp), %rax
	addq	%rdx, %rax
	movzbl	(%rax), %eax
	movzbl	%al, %eax
	addl	%eax, -32(%rbp)
	movq	-40(%rbp), %rax
	leaq	1(%rax), %rdx
	movq	%rdx, -40(%rbp)
	movzbl	(%rax), %eax
	movzbl	%al, %eax
	negq	%rax
	movq	%rax, %rdx
	movq	-48(%rbp), %rax
	addq	%rdx, %rax
	movzbl	(%rax), %eax
	movzbl	%al, %eax
	addl	%eax, -32(%rbp)
	movq	-40(%rbp), %rax
	movzbl	(%rax), %eax
	movzbl	%al, %eax
	negq	%rax
	movq	%rax, %rdx
	movq	-48(%rbp), %rax
	addq	%rdx, %rax
	movzbl	(%rax), %eax
	movzbl	%al, %eax
	addl	%eax, -32(%rbp)
	movl	-104(%rbp), %eax
	cltq
	subq	$5, %rax
	addq	%rax, -40(%rbp)
	movq	-40(%rbp), %rax
	leaq	1(%rax), %rdx
	movq	%rdx, -40(%rbp)
	movzbl	(%rax), %eax
	movzbl	%al, %eax
	negq	%rax
	movq	%rax, %rdx
	movq	-48(%rbp), %rax
	addq	%rdx, %rax
	movzbl	(%rax), %eax
	movzbl	%al, %eax
	addl	%eax, -32(%rbp)
	movq	-40(%rbp), %rax
	leaq	1(%rax), %rdx
	movq	%rdx, -40(%rbp)
	movzbl	(%rax), %eax
	movzbl	%al, %eax
	negq	%rax
	movq	%rax, %rdx
	movq	-48(%rbp), %rax
	addq	%rdx, %rax
	movzbl	(%rax), %eax
	movzbl	%al, %eax
	addl	%eax, -32(%rbp)
	movq	-40(%rbp), %rax
	leaq	1(%rax), %rdx
	movq	%rdx, -40(%rbp)
	movzbl	(%rax), %eax
	movzbl	%al, %eax
	negq	%rax
	movq	%rax, %rdx
	movq	-48(%rbp), %rax
	addq	%rdx, %rax
	movzbl	(%rax), %eax
	movzbl	%al, %eax
	addl	%eax, -32(%rbp)
	movq	-40(%rbp), %rax
	leaq	1(%rax), %rdx
	movq	%rdx, -40(%rbp)
	movzbl	(%rax), %eax
	movzbl	%al, %eax
	negq	%rax
	movq	%rax, %rdx
	movq	-48(%rbp), %rax
	addq	%rdx, %rax
	movzbl	(%rax), %eax
	movzbl	%al, %eax
	addl	%eax, -32(%rbp)
	movq	-40(%rbp), %rax
	leaq	1(%rax), %rdx
	movq	%rdx, -40(%rbp)
	movzbl	(%rax), %eax
	movzbl	%al, %eax
	negq	%rax
	movq	%rax, %rdx
	movq	-48(%rbp), %rax
	addq	%rdx, %rax
	movzbl	(%rax), %eax
	movzbl	%al, %eax
	addl	%eax, -32(%rbp)
	movq	-40(%rbp), %rax
	leaq	1(%rax), %rdx
	movq	%rdx, -40(%rbp)
	movzbl	(%rax), %eax
	movzbl	%al, %eax
	negq	%rax
	movq	%rax, %rdx
	movq	-48(%rbp), %rax
	addq	%rdx, %rax
	movzbl	(%rax), %eax
	movzbl	%al, %eax
	addl	%eax, -32(%rbp)
	movq	-40(%rbp), %rax
	movzbl	(%rax), %eax
	movzbl	%al, %eax
	negq	%rax
	movq	%rax, %rdx
	movq	-48(%rbp), %rax
	addq	%rdx, %rax
	movzbl	(%rax), %eax
	movzbl	%al, %eax
	addl	%eax, -32(%rbp)
	movl	-104(%rbp), %eax
	cltq
	subq	$6, %rax
	addq	%rax, -40(%rbp)
	movq	-40(%rbp), %rax
	leaq	1(%rax), %rdx
	movq	%rdx, -40(%rbp)
	movzbl	(%rax), %eax
	movzbl	%al, %eax
	negq	%rax
	movq	%rax, %rdx
	movq	-48(%rbp), %rax
	addq	%rdx, %rax
	movzbl	(%rax), %eax
	movzbl	%al, %eax
	addl	%eax, -32(%rbp)
	movq	-40(%rbp), %rax
	leaq	1(%rax), %rdx
	movq	%rdx, -40(%rbp)
	movzbl	(%rax), %eax
	movzbl	%al, %eax
	negq	%rax
	movq	%rax, %rdx
	movq	-48(%rbp), %rax
	addq	%rdx, %rax
	movzbl	(%rax), %eax
	movzbl	%al, %eax
	addl	%eax, -32(%rbp)
	movq	-40(%rbp), %rax
	movzbl	(%rax), %eax
	movzbl	%al, %eax
	negq	%rax
	movq	%rax, %rdx
	movq	-48(%rbp), %rax
	addq	%rdx, %rax
	movzbl	(%rax), %eax
	movzbl	%al, %eax
	addl	%eax, -32(%rbp)
	addq	$2, -40(%rbp)
	movq	-40(%rbp), %rax
	leaq	1(%rax), %rdx
	movq	%rdx, -40(%rbp)
	movzbl	(%rax), %eax
	movzbl	%al, %eax
	negq	%rax
	movq	%rax, %rdx
	movq	-48(%rbp), %rax
	addq	%rdx, %rax
	movzbl	(%rax), %eax
	movzbl	%al, %eax
	addl	%eax, -32(%rbp)
	movq	-40(%rbp), %rax
	leaq	1(%rax), %rdx
	movq	%rdx, -40(%rbp)
	movzbl	(%rax), %eax
	movzbl	%al, %eax
	negq	%rax
	movq	%rax, %rdx
	movq	-48(%rbp), %rax
	addq	%rdx, %rax
	movzbl	(%rax), %eax
	movzbl	%al, %eax
	addl	%eax, -32(%rbp)
	movq	-40(%rbp), %rax
	movzbl	(%rax), %eax
	movzbl	%al, %eax
	negq	%rax
	movq	%rax, %rdx
	movq	-48(%rbp), %rax
	addq	%rdx, %rax
	movzbl	(%rax), %eax
	movzbl	%al, %eax
	addl	%eax, -32(%rbp)
	movl	-104(%rbp), %eax
	cltq
	subq	$6, %rax
	addq	%rax, -40(%rbp)
	movq	-40(%rbp), %rax
	leaq	1(%rax), %rdx
	movq	%rdx, -40(%rbp)
	movzbl	(%rax), %eax
	movzbl	%al, %eax
	negq	%rax
	movq	%rax, %rdx
	movq	-48(%rbp), %rax
	addq	%rdx, %rax
	movzbl	(%rax), %eax
	movzbl	%al, %eax
	addl	%eax, -32(%rbp)
	movq	-40(%rbp), %rax
	leaq	1(%rax), %rdx
	movq	%rdx, -40(%rbp)
	movzbl	(%rax), %eax
	movzbl	%al, %eax
	negq	%rax
	movq	%rax, %rdx
	movq	-48(%rbp), %rax
	addq	%rdx, %rax
	movzbl	(%rax), %eax
	movzbl	%al, %eax
	addl	%eax, -32(%rbp)
	movq	-40(%rbp), %rax
	leaq	1(%rax), %rdx
	movq	%rdx, -40(%rbp)
	movzbl	(%rax), %eax
	movzbl	%al, %eax
	negq	%rax
	movq	%rax, %rdx
	movq	-48(%rbp), %rax
	addq	%rdx, %rax
	movzbl	(%rax), %eax
	movzbl	%al, %eax
	addl	%eax, -32(%rbp)
	movq	-40(%rbp), %rax
	leaq	1(%rax), %rdx
	movq	%rdx, -40(%rbp)
	movzbl	(%rax), %eax
	movzbl	%al, %eax
	negq	%rax
	movq	%rax, %rdx
	movq	-48(%rbp), %rax
	addq	%rdx, %rax
	movzbl	(%rax), %eax
	movzbl	%al, %eax
	addl	%eax, -32(%rbp)
	movq	-40(%rbp), %rax
	leaq	1(%rax), %rdx
	movq	%rdx, -40(%rbp)
	movzbl	(%rax), %eax
	movzbl	%al, %eax
	negq	%rax
	movq	%rax, %rdx
	movq	-48(%rbp), %rax
	addq	%rdx, %rax
	movzbl	(%rax), %eax
	movzbl	%al, %eax
	addl	%eax, -32(%rbp)
	movq	-40(%rbp), %rax
	leaq	1(%rax), %rdx
	movq	%rdx, -40(%rbp)
	movzbl	(%rax), %eax
	movzbl	%al, %eax
	negq	%rax
	movq	%rax, %rdx
	movq	-48(%rbp), %rax
	addq	%rdx, %rax
	movzbl	(%rax), %eax
	movzbl	%al, %eax
	addl	%eax, -32(%rbp)
	movq	-40(%rbp), %rax
	movzbl	(%rax), %eax
	movzbl	%al, %eax
	negq	%rax
	movq	%rax, %rdx
	movq	-48(%rbp), %rax
	addq	%rdx, %rax
	movzbl	(%rax), %eax
	movzbl	%al, %eax
	addl	%eax, -32(%rbp)
	movl	-104(%rbp), %eax
	cltq
	subq	$5, %rax
	addq	%rax, -40(%rbp)
	movq	-40(%rbp), %rax
	leaq	1(%rax), %rdx
	movq	%rdx, -40(%rbp)
	movzbl	(%rax), %eax
	movzbl	%al, %eax
	negq	%rax
	movq	%rax, %rdx
	movq	-48(%rbp), %rax
	addq	%rdx, %rax
	movzbl	(%rax), %eax
	movzbl	%al, %eax
	addl	%eax, -32(%rbp)
	movq	-40(%rbp), %rax
	leaq	1(%rax), %rdx
	movq	%rdx, -40(%rbp)
	movzbl	(%rax), %eax
	movzbl	%al, %eax
	negq	%rax
	movq	%rax, %rdx
	movq	-48(%rbp), %rax
	addq	%rdx, %rax
	movzbl	(%rax), %eax
	movzbl	%al, %eax
	addl	%eax, -32(%rbp)
	movq	-40(%rbp), %rax
	leaq	1(%rax), %rdx
	movq	%rdx, -40(%rbp)
	movzbl	(%rax), %eax
	movzbl	%al, %eax
	negq	%rax
	movq	%rax, %rdx
	movq	-48(%rbp), %rax
	addq	%rdx, %rax
	movzbl	(%rax), %eax
	movzbl	%al, %eax
	addl	%eax, -32(%rbp)
	movq	-40(%rbp), %rax
	leaq	1(%rax), %rdx
	movq	%rdx, -40(%rbp)
	movzbl	(%rax), %eax
	movzbl	%al, %eax
	negq	%rax
	movq	%rax, %rdx
	movq	-48(%rbp), %rax
	addq	%rdx, %rax
	movzbl	(%rax), %eax
	movzbl	%al, %eax
	addl	%eax, -32(%rbp)
	movq	-40(%rbp), %rax
	movzbl	(%rax), %eax
	movzbl	%al, %eax
	negq	%rax
	movq	%rax, %rdx
	movq	-48(%rbp), %rax
	addq	%rdx, %rax
	movzbl	(%rax), %eax
	movzbl	%al, %eax
	addl	%eax, -32(%rbp)
	movl	-104(%rbp), %eax
	cltq
	subq	$3, %rax
	addq	%rax, -40(%rbp)
	movq	-40(%rbp), %rax
	leaq	1(%rax), %rdx
	movq	%rdx, -40(%rbp)
	movzbl	(%rax), %eax
	movzbl	%al, %eax
	negq	%rax
	movq	%rax, %rdx
	movq	-48(%rbp), %rax
	addq	%rdx, %rax
	movzbl	(%rax), %eax
	movzbl	%al, %eax
	addl	%eax, -32(%rbp)
	movq	-40(%rbp), %rax
	leaq	1(%rax), %rdx
	movq	%rdx, -40(%rbp)
	movzbl	(%rax), %eax
	movzbl	%al, %eax
	negq	%rax
	movq	%rax, %rdx
	movq	-48(%rbp), %rax
	addq	%rdx, %rax
	movzbl	(%rax), %eax
	movzbl	%al, %eax
	addl	%eax, -32(%rbp)
	movq	-40(%rbp), %rax
	movzbl	(%rax), %eax
	movzbl	%al, %eax
	negq	%rax
	movq	%rax, %rdx
	movq	-48(%rbp), %rax
	addq	%rdx, %rax
	movzbl	(%rax), %eax
	movzbl	%al, %eax
	addl	%eax, -32(%rbp)
	movl	-32(%rbp), %eax
	cmpl	-100(%rbp), %eax
	jg	.L143
	movl	-12(%rbp), %eax
	imull	-104(%rbp), %eax
	movl	%eax, %edx
	movl	-16(%rbp), %eax
	addl	%edx, %eax
	cltq
	leaq	0(,%rax,4), %rdx
	movq	-80(%rbp), %rax
	addq	%rax, %rdx
	movl	-100(%rbp), %eax
	subl	-32(%rbp), %eax
	movl	%eax, (%rdx)
.L143:
	addl	$1, -16(%rbp)
.L142:
	movl	-104(%rbp), %eax
	subl	$3, %eax
	cmpl	%eax, -16(%rbp)
	jl	.L144
	addl	$1, -12(%rbp)
.L141:
	movl	16(%rbp), %eax
	subl	$3, %eax
	cmpl	%eax, -12(%rbp)
	jl	.L145
	movl	$4, -12(%rbp)
	jmp	.L146
.L175:
	movl	$4, -16(%rbp)
	jmp	.L147
.L174:
	movl	-12(%rbp), %eax
	imull	-104(%rbp), %eax
	movl	%eax, %edx
	movl	-16(%rbp), %eax
	addl	%edx, %eax
	cltq
	leaq	0(,%rax,4), %rdx
	movq	-80(%rbp), %rax
	addq	%rdx, %rax
	movl	(%rax), %eax
	testl	%eax, %eax
	jle	.L148
	movl	-12(%rbp), %eax
	imull	-104(%rbp), %eax
	movl	%eax, %edx
	movl	-16(%rbp), %eax
	addl	%edx, %eax
	cltq
	leaq	0(,%rax,4), %rdx
	movq	-80(%rbp), %rax
	addq	%rdx, %rax
	movl	(%rax), %eax
	movl	%eax, -52(%rbp)
	movl	-100(%rbp), %eax
	subl	-52(%rbp), %eax
	movl	%eax, -32(%rbp)
	movl	-12(%rbp), %eax
	imull	-104(%rbp), %eax
	movl	%eax, %edx
	movl	-16(%rbp), %eax
	addl	%edx, %eax
	movslq	%eax, %rdx
	movq	-72(%rbp), %rax
	addq	%rdx, %rax
	movzbl	(%rax), %eax
	movzbl	%al, %edx
	movq	-96(%rbp), %rax
	addq	%rdx, %rax
	movq	%rax, -48(%rbp)
	cmpl	$600, -32(%rbp)
	jle	.L149
	movl	-12(%rbp), %eax
	subl	$3, %eax
	imull	-104(%rbp), %eax
	movslq	%eax, %rdx
	movl	-16(%rbp), %eax
	cltq
	addq	%rdx, %rax
	leaq	-1(%rax), %rdx
	movq	-72(%rbp), %rax
	addq	%rdx, %rax
	movq	%rax, -40(%rbp)
	movl	$0, -56(%rbp)
	movl	$0, -60(%rbp)
	movq	-40(%rbp), %rax
	leaq	1(%rax), %rdx
	movq	%rdx, -40(%rbp)
	movzbl	(%rax), %eax
	movzbl	%al, %eax
	negq	%rax
	movq	%rax, %rdx
	movq	-48(%rbp), %rax
	addq	%rdx, %rax
	movzbl	(%rax), %eax
	movb	%al, -61(%rbp)
	movzbl	-61(%rbp), %eax
	subl	%eax, -56(%rbp)
	movzbl	-61(%rbp), %eax
	movl	%eax, %edx
	sall	$2, %eax
	subl	%eax, %edx
	movl	%edx, %eax
	addl	%eax, -60(%rbp)
	movq	-40(%rbp), %rax
	leaq	1(%rax), %rdx
	movq	%rdx, -40(%rbp)
	movzbl	(%rax), %eax
	movzbl	%al, %eax
	negq	%rax
	movq	%rax, %rdx
	movq	-48(%rbp), %rax
	addq	%rdx, %rax
	movzbl	(%rax), %eax
	movb	%al, -61(%rbp)
	movzbl	-61(%rbp), %eax
	movl	%eax, %edx
	sall	$2, %eax
	subl	%eax, %edx
	movl	%edx, %eax
	addl	%eax, -60(%rbp)
	movq	-40(%rbp), %rax
	movzbl	(%rax), %eax
	movzbl	%al, %eax
	negq	%rax
	movq	%rax, %rdx
	movq	-48(%rbp), %rax
	addq	%rdx, %rax
	movzbl	(%rax), %eax
	movb	%al, -61(%rbp)
	movzbl	-61(%rbp), %eax
	addl	%eax, -56(%rbp)
	movzbl	-61(%rbp), %eax
	movl	%eax, %edx
	sall	$2, %eax
	subl	%eax, %edx
	movl	%edx, %eax
	addl	%eax, -60(%rbp)
	movl	-104(%rbp), %eax
	cltq
	subq	$3, %rax
	addq	%rax, -40(%rbp)
	movq	-40(%rbp), %rax
	leaq	1(%rax), %rdx
	movq	%rdx, -40(%rbp)
	movzbl	(%rax), %eax
	movzbl	%al, %eax
	negq	%rax
	movq	%rax, %rdx
	movq	-48(%rbp), %rax
	addq	%rdx, %rax
	movzbl	(%rax), %eax
	movb	%al, -61(%rbp)
	movzbl	-61(%rbp), %eax
	addl	%eax, %eax
	subl	%eax, -56(%rbp)
	movzbl	-61(%rbp), %eax
	addl	%eax, %eax
	subl	%eax, -60(%rbp)
	movq	-40(%rbp), %rax
	leaq	1(%rax), %rdx
	movq	%rdx, -40(%rbp)
	movzbl	(%rax), %eax
	movzbl	%al, %eax
	negq	%rax
	movq	%rax, %rdx
	movq	-48(%rbp), %rax
	addq	%rdx, %rax
	movzbl	(%rax), %eax
	movb	%al, -61(%rbp)
	movzbl	-61(%rbp), %eax
	subl	%eax, -56(%rbp)
	movzbl	-61(%rbp), %eax
	addl	%eax, %eax
	subl	%eax, -60(%rbp)
	movq	-40(%rbp), %rax
	leaq	1(%rax), %rdx
	movq	%rdx, -40(%rbp)
	movzbl	(%rax), %eax
	movzbl	%al, %eax
	negq	%rax
	movq	%rax, %rdx
	movq	-48(%rbp), %rax
	addq	%rdx, %rax
	movzbl	(%rax), %eax
	movb	%al, -61(%rbp)
	movzbl	-61(%rbp), %eax
	addl	%eax, %eax
	subl	%eax, -60(%rbp)
	movq	-40(%rbp), %rax
	leaq	1(%rax), %rdx
	movq	%rdx, -40(%rbp)
	movzbl	(%rax), %eax
	movzbl	%al, %eax
	negq	%rax
	movq	%rax, %rdx
	movq	-48(%rbp), %rax
	addq	%rdx, %rax
	movzbl	(%rax), %eax
	movb	%al, -61(%rbp)
	movzbl	-61(%rbp), %eax
	addl	%eax, -56(%rbp)
	movzbl	-61(%rbp), %eax
	addl	%eax, %eax
	subl	%eax, -60(%rbp)
	movq	-40(%rbp), %rax
	movzbl	(%rax), %eax
	movzbl	%al, %eax
	negq	%rax
	movq	%rax, %rdx
	movq	-48(%rbp), %rax
	addq	%rdx, %rax
	movzbl	(%rax), %eax
	movb	%al, -61(%rbp)
	movzbl	-61(%rbp), %eax
	addl	%eax, %eax
	addl	%eax, -56(%rbp)
	movzbl	-61(%rbp), %eax
	addl	%eax, %eax
	subl	%eax, -60(%rbp)
	movl	-104(%rbp), %eax
	cltq
	subq	$5, %rax
	addq	%rax, -40(%rbp)
	movq	-40(%rbp), %rax
	leaq	1(%rax), %rdx
	movq	%rdx, -40(%rbp)
	movzbl	(%rax), %eax
	movzbl	%al, %eax
	negq	%rax
	movq	%rax, %rdx
	movq	-48(%rbp), %rax
	addq	%rdx, %rax
	movzbl	(%rax), %eax
	movb	%al, -61(%rbp)
	movzbl	-61(%rbp), %eax
	movl	%eax, %edx
	sall	$2, %eax
	subl	%eax, %edx
	movl	%edx, %eax
	addl	%eax, -56(%rbp)
	movzbl	-61(%rbp), %eax
	subl	%eax, -60(%rbp)
	movq	-40(%rbp), %rax
	leaq	1(%rax), %rdx
	movq	%rdx, -40(%rbp)
	movzbl	(%rax), %eax
	movzbl	%al, %eax
	negq	%rax
	movq	%rax, %rdx
	movq	-48(%rbp), %rax
	addq	%rdx, %rax
	movzbl	(%rax), %eax
	movb	%al, -61(%rbp)
	movzbl	-61(%rbp), %eax
	addl	%eax, %eax
	subl	%eax, -56(%rbp)
	movzbl	-61(%rbp), %eax
	subl	%eax, -60(%rbp)
	movq	-40(%rbp), %rax
	leaq	1(%rax), %rdx
	movq	%rdx, -40(%rbp)
	movzbl	(%rax), %eax
	movzbl	%al, %eax
	negq	%rax
	movq	%rax, %rdx
	movq	-48(%rbp), %rax
	addq	%rdx, %rax
	movzbl	(%rax), %eax
	movb	%al, -61(%rbp)
	movzbl	-61(%rbp), %eax
	subl	%eax, -56(%rbp)
	movzbl	-61(%rbp), %eax
	subl	%eax, -60(%rbp)
	movq	-40(%rbp), %rax
	leaq	1(%rax), %rdx
	movq	%rdx, -40(%rbp)
	movzbl	(%rax), %eax
	movzbl	%al, %eax
	negq	%rax
	movq	%rax, %rdx
	movq	-48(%rbp), %rax
	addq	%rdx, %rax
	movzbl	(%rax), %eax
	movb	%al, -61(%rbp)
	movzbl	-61(%rbp), %eax
	subl	%eax, -60(%rbp)
	movq	-40(%rbp), %rax
	leaq	1(%rax), %rdx
	movq	%rdx, -40(%rbp)
	movzbl	(%rax), %eax
	movzbl	%al, %eax
	negq	%rax
	movq	%rax, %rdx
	movq	-48(%rbp), %rax
	addq	%rdx, %rax
	movzbl	(%rax), %eax
	movb	%al, -61(%rbp)
	movzbl	-61(%rbp), %eax
	addl	%eax, -56(%rbp)
	movzbl	-61(%rbp), %eax
	subl	%eax, -60(%rbp)
	movq	-40(%rbp), %rax
	leaq	1(%rax), %rdx
	movq	%rdx, -40(%rbp)
	movzbl	(%rax), %eax
	movzbl	%al, %eax
	negq	%rax
	movq	%rax, %rdx
	movq	-48(%rbp), %rax
	addq	%rdx, %rax
	movzbl	(%rax), %eax
	movb	%al, -61(%rbp)
	movzbl	-61(%rbp), %eax
	addl	%eax, %eax
	addl	%eax, -56(%rbp)
	movzbl	-61(%rbp), %eax
	subl	%eax, -60(%rbp)
	movq	-40(%rbp), %rax
	movzbl	(%rax), %eax
	movzbl	%al, %eax
	negq	%rax
	movq	%rax, %rdx
	movq	-48(%rbp), %rax
	addq	%rdx, %rax
	movzbl	(%rax), %eax
	movb	%al, -61(%rbp)
	movzbl	-61(%rbp), %edx
	movl	%edx, %eax
	addl	%eax, %eax
	addl	%edx, %eax
	addl	%eax, -56(%rbp)
	movzbl	-61(%rbp), %eax
	subl	%eax, -60(%rbp)
	movl	-104(%rbp), %eax
	cltq
	subq	$6, %rax
	addq	%rax, -40(%rbp)
	movq	-40(%rbp), %rax
	leaq	1(%rax), %rdx
	movq	%rdx, -40(%rbp)
	movzbl	(%rax), %eax
	movzbl	%al, %eax
	negq	%rax
	movq	%rax, %rdx
	movq	-48(%rbp), %rax
	addq	%rdx, %rax
	movzbl	(%rax), %eax
	movb	%al, -61(%rbp)
	movzbl	-61(%rbp), %eax
	movl	%eax, %edx
	sall	$2, %eax
	subl	%eax, %edx
	movl	%edx, %eax
	addl	%eax, -56(%rbp)
	movq	-40(%rbp), %rax
	leaq	1(%rax), %rdx
	movq	%rdx, -40(%rbp)
	movzbl	(%rax), %eax
	movzbl	%al, %eax
	negq	%rax
	movq	%rax, %rdx
	movq	-48(%rbp), %rax
	addq	%rdx, %rax
	movzbl	(%rax), %eax
	movb	%al, -61(%rbp)
	movzbl	-61(%rbp), %eax
	addl	%eax, %eax
	subl	%eax, -56(%rbp)
	movq	-40(%rbp), %rax
	movzbl	(%rax), %eax
	movzbl	%al, %eax
	negq	%rax
	movq	%rax, %rdx
	movq	-48(%rbp), %rax
	addq	%rdx, %rax
	movzbl	(%rax), %eax
	movb	%al, -61(%rbp)
	movzbl	-61(%rbp), %eax
	subl	%eax, -56(%rbp)
	addq	$2, -40(%rbp)
	movq	-40(%rbp), %rax
	leaq	1(%rax), %rdx
	movq	%rdx, -40(%rbp)
	movzbl	(%rax), %eax
	movzbl	%al, %eax
	negq	%rax
	movq	%rax, %rdx
	movq	-48(%rbp), %rax
	addq	%rdx, %rax
	movzbl	(%rax), %eax
	movb	%al, -61(%rbp)
	movzbl	-61(%rbp), %eax
	addl	%eax, -56(%rbp)
	movq	-40(%rbp), %rax
	leaq	1(%rax), %rdx
	movq	%rdx, -40(%rbp)
	movzbl	(%rax), %eax
	movzbl	%al, %eax
	negq	%rax
	movq	%rax, %rdx
	movq	-48(%rbp), %rax
	addq	%rdx, %rax
	movzbl	(%rax), %eax
	movb	%al, -61(%rbp)
	movzbl	-61(%rbp), %eax
	addl	%eax, %eax
	addl	%eax, -56(%rbp)
	movq	-40(%rbp), %rax
	movzbl	(%rax), %eax
	movzbl	%al, %eax
	negq	%rax
	movq	%rax, %rdx
	movq	-48(%rbp), %rax
	addq	%rdx, %rax
	movzbl	(%rax), %eax
	movb	%al, -61(%rbp)
	movzbl	-61(%rbp), %edx
	movl	%edx, %eax
	addl	%eax, %eax
	addl	%edx, %eax
	addl	%eax, -56(%rbp)
	movl	-104(%rbp), %eax
	cltq
	subq	$6, %rax
	addq	%rax, -40(%rbp)
	movq	-40(%rbp), %rax
	leaq	1(%rax), %rdx
	movq	%rdx, -40(%rbp)
	movzbl	(%rax), %eax
	movzbl	%al, %eax
	negq	%rax
	movq	%rax, %rdx
	movq	-48(%rbp), %rax
	addq	%rdx, %rax
	movzbl	(%rax), %eax
	movb	%al, -61(%rbp)
	movzbl	-61(%rbp), %eax
	movl	%eax, %edx
	sall	$2, %eax
	subl	%eax, %edx
	movl	%edx, %eax
	addl	%eax, -56(%rbp)
	movzbl	-61(%rbp), %eax
	addl	%eax, -60(%rbp)
	movq	-40(%rbp), %rax
	leaq	1(%rax), %rdx
	movq	%rdx, -40(%rbp)
	movzbl	(%rax), %eax
	movzbl	%al, %eax
	negq	%rax
	movq	%rax, %rdx
	movq	-48(%rbp), %rax
	addq	%rdx, %rax
	movzbl	(%rax), %eax
	movb	%al, -61(%rbp)
	movzbl	-61(%rbp), %eax
	addl	%eax, %eax
	subl	%eax, -56(%rbp)
	movzbl	-61(%rbp), %eax
	addl	%eax, -60(%rbp)
	movq	-40(%rbp), %rax
	leaq	1(%rax), %rdx
	movq	%rdx, -40(%rbp)
	movzbl	(%rax), %eax
	movzbl	%al, %eax
	negq	%rax
	movq	%rax, %rdx
	movq	-48(%rbp), %rax
	addq	%rdx, %rax
	movzbl	(%rax), %eax
	movb	%al, -61(%rbp)
	movzbl	-61(%rbp), %eax
	subl	%eax, -56(%rbp)
	movzbl	-61(%rbp), %eax
	addl	%eax, -60(%rbp)
	movq	-40(%rbp), %rax
	leaq	1(%rax), %rdx
	movq	%rdx, -40(%rbp)
	movzbl	(%rax), %eax
	movzbl	%al, %eax
	negq	%rax
	movq	%rax, %rdx
	movq	-48(%rbp), %rax
	addq	%rdx, %rax
	movzbl	(%rax), %eax
	movb	%al, -61(%rbp)
	movzbl	-61(%rbp), %eax
	addl	%eax, -60(%rbp)
	movq	-40(%rbp), %rax
	leaq	1(%rax), %rdx
	movq	%rdx, -40(%rbp)
	movzbl	(%rax), %eax
	movzbl	%al, %eax
	negq	%rax
	movq	%rax, %rdx
	movq	-48(%rbp), %rax
	addq	%rdx, %rax
	movzbl	(%rax), %eax
	movb	%al, -61(%rbp)
	movzbl	-61(%rbp), %eax
	addl	%eax, -56(%rbp)
	movzbl	-61(%rbp), %eax
	addl	%eax, -60(%rbp)
	movq	-40(%rbp), %rax
	leaq	1(%rax), %rdx
	movq	%rdx, -40(%rbp)
	movzbl	(%rax), %eax
	movzbl	%al, %eax
	negq	%rax
	movq	%rax, %rdx
	movq	-48(%rbp), %rax
	addq	%rdx, %rax
	movzbl	(%rax), %eax
	movb	%al, -61(%rbp)
	movzbl	-61(%rbp), %eax
	addl	%eax, %eax
	addl	%eax, -56(%rbp)
	movzbl	-61(%rbp), %eax
	addl	%eax, -60(%rbp)
	movq	-40(%rbp), %rax
	movzbl	(%rax), %eax
	movzbl	%al, %eax
	negq	%rax
	movq	%rax, %rdx
	movq	-48(%rbp), %rax
	addq	%rdx, %rax
	movzbl	(%rax), %eax
	movb	%al, -61(%rbp)
	movzbl	-61(%rbp), %edx
	movl	%edx, %eax
	addl	%eax, %eax
	addl	%edx, %eax
	addl	%eax, -56(%rbp)
	movzbl	-61(%rbp), %eax
	addl	%eax, -60(%rbp)
	movl	-104(%rbp), %eax
	cltq
	subq	$5, %rax
	addq	%rax, -40(%rbp)
	movq	-40(%rbp), %rax
	leaq	1(%rax), %rdx
	movq	%rdx, -40(%rbp)
	movzbl	(%rax), %eax
	movzbl	%al, %eax
	negq	%rax
	movq	%rax, %rdx
	movq	-48(%rbp), %rax
	addq	%rdx, %rax
	movzbl	(%rax), %eax
	movb	%al, -61(%rbp)
	movzbl	-61(%rbp), %eax
	addl	%eax, %eax
	subl	%eax, -56(%rbp)
	movzbl	-61(%rbp), %eax
	addl	%eax, %eax
	addl	%eax, -60(%rbp)
	movq	-40(%rbp), %rax
	leaq	1(%rax), %rdx
	movq	%rdx, -40(%rbp)
	movzbl	(%rax), %eax
	movzbl	%al, %eax
	negq	%rax
	movq	%rax, %rdx
	movq	-48(%rbp), %rax
	addq	%rdx, %rax
	movzbl	(%rax), %eax
	movb	%al, -61(%rbp)
	movzbl	-61(%rbp), %eax
	subl	%eax, -56(%rbp)
	movzbl	-61(%rbp), %eax
	addl	%eax, %eax
	addl	%eax, -60(%rbp)
	movq	-40(%rbp), %rax
	leaq	1(%rax), %rdx
	movq	%rdx, -40(%rbp)
	movzbl	(%rax), %eax
	movzbl	%al, %eax
	negq	%rax
	movq	%rax, %rdx
	movq	-48(%rbp), %rax
	addq	%rdx, %rax
	movzbl	(%rax), %eax
	movb	%al, -61(%rbp)
	movzbl	-61(%rbp), %eax
	addl	%eax, %eax
	addl	%eax, -60(%rbp)
	movq	-40(%rbp), %rax
	leaq	1(%rax), %rdx
	movq	%rdx, -40(%rbp)
	movzbl	(%rax), %eax
	movzbl	%al, %eax
	negq	%rax
	movq	%rax, %rdx
	movq	-48(%rbp), %rax
	addq	%rdx, %rax
	movzbl	(%rax), %eax
	movb	%al, -61(%rbp)
	movzbl	-61(%rbp), %eax
	addl	%eax, -56(%rbp)
	movzbl	-61(%rbp), %eax
	addl	%eax, %eax
	addl	%eax, -60(%rbp)
	movq	-40(%rbp), %rax
	movzbl	(%rax), %eax
	movzbl	%al, %eax
	negq	%rax
	movq	%rax, %rdx
	movq	-48(%rbp), %rax
	addq	%rdx, %rax
	movzbl	(%rax), %eax
	movb	%al, -61(%rbp)
	movzbl	-61(%rbp), %eax
	addl	%eax, %eax
	addl	%eax, -56(%rbp)
	movzbl	-61(%rbp), %eax
	addl	%eax, %eax
	addl	%eax, -60(%rbp)
	movl	-104(%rbp), %eax
	cltq
	subq	$3, %rax
	addq	%rax, -40(%rbp)
	movq	-40(%rbp), %rax
	leaq	1(%rax), %rdx
	movq	%rdx, -40(%rbp)
	movzbl	(%rax), %eax
	movzbl	%al, %eax
	negq	%rax
	movq	%rax, %rdx
	movq	-48(%rbp), %rax
	addq	%rdx, %rax
	movzbl	(%rax), %eax
	movb	%al, -61(%rbp)
	movzbl	-61(%rbp), %eax
	subl	%eax, -56(%rbp)
	movzbl	-61(%rbp), %edx
	movl	%edx, %eax
	addl	%eax, %eax
	addl	%edx, %eax
	addl	%eax, -60(%rbp)
	movq	-40(%rbp), %rax
	leaq	1(%rax), %rdx
	movq	%rdx, -40(%rbp)
	movzbl	(%rax), %eax
	movzbl	%al, %eax
	negq	%rax
	movq	%rax, %rdx
	movq	-48(%rbp), %rax
	addq	%rdx, %rax
	movzbl	(%rax), %eax
	movb	%al, -61(%rbp)
	movzbl	-61(%rbp), %edx
	movl	%edx, %eax
	addl	%eax, %eax
	addl	%edx, %eax
	addl	%eax, -60(%rbp)
	movq	-40(%rbp), %rax
	movzbl	(%rax), %eax
	movzbl	%al, %eax
	negq	%rax
	movq	%rax, %rdx
	movq	-48(%rbp), %rax
	addq	%rdx, %rax
	movzbl	(%rax), %eax
	movb	%al, -61(%rbp)
	movzbl	-61(%rbp), %eax
	addl	%eax, -56(%rbp)
	movzbl	-61(%rbp), %edx
	movl	%edx, %eax
	addl	%eax, %eax
	addl	%edx, %eax
	addl	%eax, -60(%rbp)
	movl	-56(%rbp), %eax
	imull	-56(%rbp), %eax
	movl	%eax, %edx
	movl	-60(%rbp), %eax
	imull	-60(%rbp), %eax
	addl	%edx, %eax
	cvtsi2ss	%eax, %xmm0
	cvtss2sd	%xmm0, %xmm0
	call	sqrt@PLT
	cvtsd2ss	%xmm0, %xmm3
	movss	%xmm3, -4(%rbp)
	cvtss2sd	-4(%rbp), %xmm0
	cvtsi2ss	-32(%rbp), %xmm1
	cvtss2sd	%xmm1, %xmm2
	movsd	.LC34(%rip), %xmm1
	mulsd	%xmm2, %xmm1
	comisd	%xmm1, %xmm0
	jbe	.L182
	movl	$0, -8(%rbp)
	cmpl	$0, -56(%rbp)
	jne	.L152
	movss	.LC35(%rip), %xmm0
	movss	%xmm0, -4(%rbp)
	jmp	.L153
.L152:
	cvtsi2ss	-60(%rbp), %xmm0
	cvtsi2ss	-56(%rbp), %xmm1
	divss	%xmm1, %xmm0
	movss	%xmm0, -4(%rbp)
.L153:
	pxor	%xmm0, %xmm0
	comiss	-4(%rbp), %xmm0
	jbe	.L183
	movss	-4(%rbp), %xmm0
	movss	.LC25(%rip), %xmm1
	xorps	%xmm1, %xmm0
	movss	%xmm0, -4(%rbp)
	movl	$-1, -28(%rbp)
	jmp	.L156
.L183:
	movl	$1, -28(%rbp)
.L156:
	movss	.LC37(%rip), %xmm0
	comiss	-4(%rbp), %xmm0
	jbe	.L184
	movl	$0, -20(%rbp)
	movl	$1, -24(%rbp)
	jmp	.L159
.L184:
	movss	-4(%rbp), %xmm0
	comiss	.LC38(%rip), %xmm0
	jbe	.L185
	movl	$1, -20(%rbp)
	movl	$0, -24(%rbp)
	jmp	.L159
.L185:
	cmpl	$0, -28(%rbp)
	jle	.L162
	movl	$1, -20(%rbp)
	movl	$1, -24(%rbp)
	jmp	.L159
.L162:
	movl	$-1, -20(%rbp)
	movl	$1, -24(%rbp)
.L159:
	movl	-12(%rbp), %edx
	movl	-20(%rbp), %eax
	addl	%edx, %eax
	imull	-104(%rbp), %eax
	movl	%eax, %edx
	movl	-16(%rbp), %eax
	addl	%eax, %edx
	movl	-24(%rbp), %eax
	addl	%edx, %eax
	cltq
	leaq	0(,%rax,4), %rdx
	movq	-80(%rbp), %rax
	addq	%rdx, %rax
	movl	(%rax), %eax
	cmpl	%eax, -52(%rbp)
	jle	.L165
	movl	-12(%rbp), %eax
	subl	-20(%rbp), %eax
	imull	-104(%rbp), %eax
	movl	%eax, %edx
	movl	-16(%rbp), %eax
	addl	%edx, %eax
	subl	-24(%rbp), %eax
	cltq
	leaq	0(,%rax,4), %rdx
	movq	-80(%rbp), %rax
	addq	%rdx, %rax
	movl	(%rax), %eax
	cmpl	%eax, -52(%rbp)
	jl	.L165
	movl	-20(%rbp), %eax
	leal	(%rax,%rax), %edx
	movl	-12(%rbp), %eax
	addl	%edx, %eax
	imull	-104(%rbp), %eax
	movl	%eax, %edx
	movl	-16(%rbp), %eax
	addl	%eax, %edx
	movl	-24(%rbp), %eax
	addl	%eax, %eax
	addl	%edx, %eax
	cltq
	leaq	0(,%rax,4), %rdx
	movq	-80(%rbp), %rax
	addq	%rdx, %rax
	movl	(%rax), %eax
	cmpl	%eax, -52(%rbp)
	jle	.L165
	movl	-20(%rbp), %eax
	leal	(%rax,%rax), %edx
	movl	-12(%rbp), %eax
	subl	%edx, %eax
	imull	-104(%rbp), %eax
	movl	%eax, %edx
	movl	-16(%rbp), %eax
	addl	%eax, %edx
	movl	-24(%rbp), %eax
	addl	%eax, %eax
	subl	%eax, %edx
	movl	%edx, %eax
	cltq
	leaq	0(,%rax,4), %rdx
	movq	-80(%rbp), %rax
	addq	%rdx, %rax
	movl	(%rax), %eax
	cmpl	%eax, -52(%rbp)
	jl	.L165
	movl	-12(%rbp), %eax
	imull	-104(%rbp), %eax
	movl	%eax, %edx
	movl	-16(%rbp), %eax
	addl	%edx, %eax
	movslq	%eax, %rdx
	movq	-88(%rbp), %rax
	addq	%rdx, %rax
	movb	$1, (%rax)
	jmp	.L165
.L182:
	movl	$1, -8(%rbp)
	jmp	.L165
.L149:
	movl	$1, -8(%rbp)
.L165:
	cmpl	$1, -8(%rbp)
	jne	.L148
	movl	-12(%rbp), %eax
	subl	$3, %eax
	imull	-104(%rbp), %eax
	movslq	%eax, %rdx
	movl	-16(%rbp), %eax
	cltq
	addq	%rdx, %rax
	leaq	-1(%rax), %rdx
	movq	-72(%rbp), %rax
	addq	%rdx, %rax
	movq	%rax, -40(%rbp)
	movl	$0, -56(%rbp)
	movl	$0, -60(%rbp)
	movl	$0, -28(%rbp)
	movq	-40(%rbp), %rax
	leaq	1(%rax), %rdx
	movq	%rdx, -40(%rbp)
	movzbl	(%rax), %eax
	movzbl	%al, %eax
	negq	%rax
	movq	%rax, %rdx
	movq	-48(%rbp), %rax
	addq	%rdx, %rax
	movzbl	(%rax), %eax
	movb	%al, -61(%rbp)
	movzbl	-61(%rbp), %eax
	addl	%eax, -56(%rbp)
	movzbl	-61(%rbp), %edx
	movl	%edx, %eax
	sall	$3, %eax
	addl	%edx, %eax
	addl	%eax, -60(%rbp)
	movzbl	-61(%rbp), %edx
	movl	%edx, %eax
	addl	%eax, %eax
	addl	%edx, %eax
	addl	%eax, -28(%rbp)
	movq	-40(%rbp), %rax
	leaq	1(%rax), %rdx
	movq	%rdx, -40(%rbp)
	movzbl	(%rax), %eax
	movzbl	%al, %eax
	negq	%rax
	movq	%rax, %rdx
	movq	-48(%rbp), %rax
	addq	%rdx, %rax
	movzbl	(%rax), %eax
	movb	%al, -61(%rbp)
	movzbl	-61(%rbp), %edx
	movl	%edx, %eax
	sall	$3, %eax
	addl	%edx, %eax
	addl	%eax, -60(%rbp)
	movq	-40(%rbp), %rax
	movzbl	(%rax), %eax
	movzbl	%al, %eax
	negq	%rax
	movq	%rax, %rdx
	movq	-48(%rbp), %rax
	addq	%rdx, %rax
	movzbl	(%rax), %eax
	movb	%al, -61(%rbp)
	movzbl	-61(%rbp), %eax
	addl	%eax, -56(%rbp)
	movzbl	-61(%rbp), %edx
	movl	%edx, %eax
	sall	$3, %eax
	addl	%edx, %eax
	addl	%eax, -60(%rbp)
	movzbl	-61(%rbp), %eax
	movl	%eax, %edx
	sall	$2, %eax
	subl	%eax, %edx
	movl	%edx, %eax
	addl	%eax, -28(%rbp)
	movl	-104(%rbp), %eax
	cltq
	subq	$3, %rax
	addq	%rax, -40(%rbp)
	movq	-40(%rbp), %rax
	leaq	1(%rax), %rdx
	movq	%rdx, -40(%rbp)
	movzbl	(%rax), %eax
	movzbl	%al, %eax
	negq	%rax
	movq	%rax, %rdx
	movq	-48(%rbp), %rax
	addq	%rdx, %rax
	movzbl	(%rax), %eax
	movb	%al, -61(%rbp)
	movzbl	-61(%rbp), %eax
	sall	$2, %eax
	addl	%eax, -56(%rbp)
	movzbl	-61(%rbp), %eax
	sall	$2, %eax
	addl	%eax, -60(%rbp)
	movzbl	-61(%rbp), %eax
	sall	$2, %eax
	addl	%eax, -28(%rbp)
	movq	-40(%rbp), %rax
	leaq	1(%rax), %rdx
	movq	%rdx, -40(%rbp)
	movzbl	(%rax), %eax
	movzbl	%al, %eax
	negq	%rax
	movq	%rax, %rdx
	movq	-48(%rbp), %rax
	addq	%rdx, %rax
	movzbl	(%rax), %eax
	movb	%al, -61(%rbp)
	movzbl	-61(%rbp), %eax
	addl	%eax, -56(%rbp)
	movzbl	-61(%rbp), %eax
	sall	$2, %eax
	addl	%eax, -60(%rbp)
	movzbl	-61(%rbp), %eax
	addl	%eax, %eax
	addl	%eax, -28(%rbp)
	movq	-40(%rbp), %rax
	leaq	1(%rax), %rdx
	movq	%rdx, -40(%rbp)
	movzbl	(%rax), %eax
	movzbl	%al, %eax
	negq	%rax
	movq	%rax, %rdx
	movq	-48(%rbp), %rax
	addq	%rdx, %rax
	movzbl	(%rax), %eax
	movb	%al, -61(%rbp)
	movzbl	-61(%rbp), %eax
	sall	$2, %eax
	addl	%eax, -60(%rbp)
	movq	-40(%rbp), %rax
	leaq	1(%rax), %rdx
	movq	%rdx, -40(%rbp)
	movzbl	(%rax), %eax
	movzbl	%al, %eax
	negq	%rax
	movq	%rax, %rdx
	movq	-48(%rbp), %rax
	addq	%rdx, %rax
	movzbl	(%rax), %eax
	movb	%al, -61(%rbp)
	movzbl	-61(%rbp), %eax
	addl	%eax, -56(%rbp)
	movzbl	-61(%rbp), %eax
	sall	$2, %eax
	addl	%eax, -60(%rbp)
	movzbl	-61(%rbp), %eax
	addl	%eax, %eax
	subl	%eax, -28(%rbp)
	movq	-40(%rbp), %rax
	movzbl	(%rax), %eax
	movzbl	%al, %eax
	negq	%rax
	movq	%rax, %rdx
	movq	-48(%rbp), %rax
	addq	%rdx, %rax
	movzbl	(%rax), %eax
	movb	%al, -61(%rbp)
	movzbl	-61(%rbp), %eax
	sall	$2, %eax
	addl	%eax, -56(%rbp)
	movzbl	-61(%rbp), %eax
	sall	$2, %eax
	addl	%eax, -60(%rbp)
	movzbl	-61(%rbp), %eax
	sall	$2, %eax
	subl	%eax, -28(%rbp)
	movl	-104(%rbp), %eax
	cltq
	subq	$5, %rax
	addq	%rax, -40(%rbp)
	movq	-40(%rbp), %rax
	leaq	1(%rax), %rdx
	movq	%rdx, -40(%rbp)
	movzbl	(%rax), %eax
	movzbl	%al, %eax
	negq	%rax
	movq	%rax, %rdx
	movq	-48(%rbp), %rax
	addq	%rdx, %rax
	movzbl	(%rax), %eax
	movb	%al, -61(%rbp)
	movzbl	-61(%rbp), %edx
	movl	%edx, %eax
	sall	$3, %eax
	addl	%edx, %eax
	addl	%eax, -56(%rbp)
	movzbl	-61(%rbp), %eax
	addl	%eax, -60(%rbp)
	movzbl	-61(%rbp), %edx
	movl	%edx, %eax
	addl	%eax, %eax
	addl	%edx, %eax
	addl	%eax, -28(%rbp)
	movq	-40(%rbp), %rax
	leaq	1(%rax), %rdx
	movq	%rdx, -40(%rbp)
	movzbl	(%rax), %eax
	movzbl	%al, %eax
	negq	%rax
	movq	%rax, %rdx
	movq	-48(%rbp), %rax
	addq	%rdx, %rax
	movzbl	(%rax), %eax
	movb	%al, -61(%rbp)
	movzbl	-61(%rbp), %eax
	sall	$2, %eax
	addl	%eax, -56(%rbp)
	movzbl	-61(%rbp), %eax
	addl	%eax, -60(%rbp)
	movzbl	-61(%rbp), %eax
	addl	%eax, %eax
	addl	%eax, -28(%rbp)
	movq	-40(%rbp), %rax
	leaq	1(%rax), %rdx
	movq	%rdx, -40(%rbp)
	movzbl	(%rax), %eax
	movzbl	%al, %eax
	negq	%rax
	movq	%rax, %rdx
	movq	-48(%rbp), %rax
	addq	%rdx, %rax
	movzbl	(%rax), %eax
	movb	%al, -61(%rbp)
	movzbl	-61(%rbp), %eax
	addl	%eax, -56(%rbp)
	movzbl	-61(%rbp), %eax
	addl	%eax, -60(%rbp)
	movzbl	-61(%rbp), %eax
	addl	%eax, -28(%rbp)
	movq	-40(%rbp), %rax
	leaq	1(%rax), %rdx
	movq	%rdx, -40(%rbp)
	movzbl	(%rax), %eax
	movzbl	%al, %eax
	negq	%rax
	movq	%rax, %rdx
	movq	-48(%rbp), %rax
	addq	%rdx, %rax
	movzbl	(%rax), %eax
	movb	%al, -61(%rbp)
	movzbl	-61(%rbp), %eax
	addl	%eax, -60(%rbp)
	movq	-40(%rbp), %rax
	leaq	1(%rax), %rdx
	movq	%rdx, -40(%rbp)
	movzbl	(%rax), %eax
	movzbl	%al, %eax
	negq	%rax
	movq	%rax, %rdx
	movq	-48(%rbp), %rax
	addq	%rdx, %rax
	movzbl	(%rax), %eax
	movb	%al, -61(%rbp)
	movzbl	-61(%rbp), %eax
	addl	%eax, -56(%rbp)
	movzbl	-61(%rbp), %eax
	addl	%eax, -60(%rbp)
	movzbl	-61(%rbp), %eax
	subl	%eax, -28(%rbp)
	movq	-40(%rbp), %rax
	leaq	1(%rax), %rdx
	movq	%rdx, -40(%rbp)
	movzbl	(%rax), %eax
	movzbl	%al, %eax
	negq	%rax
	movq	%rax, %rdx
	movq	-48(%rbp), %rax
	addq	%rdx, %rax
	movzbl	(%rax), %eax
	movb	%al, -61(%rbp)
	movzbl	-61(%rbp), %eax
	sall	$2, %eax
	addl	%eax, -56(%rbp)
	movzbl	-61(%rbp), %eax
	addl	%eax, -60(%rbp)
	movzbl	-61(%rbp), %eax
	addl	%eax, %eax
	subl	%eax, -28(%rbp)
	movq	-40(%rbp), %rax
	movzbl	(%rax), %eax
	movzbl	%al, %eax
	negq	%rax
	movq	%rax, %rdx
	movq	-48(%rbp), %rax
	addq	%rdx, %rax
	movzbl	(%rax), %eax
	movb	%al, -61(%rbp)
	movzbl	-61(%rbp), %edx
	movl	%edx, %eax
	sall	$3, %eax
	addl	%edx, %eax
	addl	%eax, -56(%rbp)
	movzbl	-61(%rbp), %eax
	addl	%eax, -60(%rbp)
	movzbl	-61(%rbp), %eax
	movl	%eax, %edx
	sall	$2, %eax
	subl	%eax, %edx
	movl	%edx, %eax
	addl	%eax, -28(%rbp)
	movl	-104(%rbp), %eax
	cltq
	subq	$6, %rax
	addq	%rax, -40(%rbp)
	movq	-40(%rbp), %rax
	leaq	1(%rax), %rdx
	movq	%rdx, -40(%rbp)
	movzbl	(%rax), %eax
	movzbl	%al, %eax
	negq	%rax
	movq	%rax, %rdx
	movq	-48(%rbp), %rax
	addq	%rdx, %rax
	movzbl	(%rax), %eax
	movb	%al, -61(%rbp)
	movzbl	-61(%rbp), %edx
	movl	%edx, %eax
	sall	$3, %eax
	addl	%edx, %eax
	addl	%eax, -56(%rbp)
	movq	-40(%rbp), %rax
	leaq	1(%rax), %rdx
	movq	%rdx, -40(%rbp)
	movzbl	(%rax), %eax
	movzbl	%al, %eax
	negq	%rax
	movq	%rax, %rdx
	movq	-48(%rbp), %rax
	addq	%rdx, %rax
	movzbl	(%rax), %eax
	movb	%al, -61(%rbp)
	movzbl	-61(%rbp), %eax
	sall	$2, %eax
	addl	%eax, -56(%rbp)
	movq	-40(%rbp), %rax
	movzbl	(%rax), %eax
	movzbl	%al, %eax
	negq	%rax
	movq	%rax, %rdx
	movq	-48(%rbp), %rax
	addq	%rdx, %rax
	movzbl	(%rax), %eax
	movb	%al, -61(%rbp)
	movzbl	-61(%rbp), %eax
	addl	%eax, -56(%rbp)
	addq	$2, -40(%rbp)
	movq	-40(%rbp), %rax
	leaq	1(%rax), %rdx
	movq	%rdx, -40(%rbp)
	movzbl	(%rax), %eax
	movzbl	%al, %eax
	negq	%rax
	movq	%rax, %rdx
	movq	-48(%rbp), %rax
	addq	%rdx, %rax
	movzbl	(%rax), %eax
	movb	%al, -61(%rbp)
	movzbl	-61(%rbp), %eax
	addl	%eax, -56(%rbp)
	movq	-40(%rbp), %rax
	leaq	1(%rax), %rdx
	movq	%rdx, -40(%rbp)
	movzbl	(%rax), %eax
	movzbl	%al, %eax
	negq	%rax
	movq	%rax, %rdx
	movq	-48(%rbp), %rax
	addq	%rdx, %rax
	movzbl	(%rax), %eax
	movb	%al, -61(%rbp)
	movzbl	-61(%rbp), %eax
	sall	$2, %eax
	addl	%eax, -56(%rbp)
	movq	-40(%rbp), %rax
	movzbl	(%rax), %eax
	movzbl	%al, %eax
	negq	%rax
	movq	%rax, %rdx
	movq	-48(%rbp), %rax
	addq	%rdx, %rax
	movzbl	(%rax), %eax
	movb	%al, -61(%rbp)
	movzbl	-61(%rbp), %edx
	movl	%edx, %eax
	sall	$3, %eax
	addl	%edx, %eax
	addl	%eax, -56(%rbp)
	movl	-104(%rbp), %eax
	cltq
	subq	$6, %rax
	addq	%rax, -40(%rbp)
	movq	-40(%rbp), %rax
	leaq	1(%rax), %rdx
	movq	%rdx, -40(%rbp)
	movzbl	(%rax), %eax
	movzbl	%al, %eax
	negq	%rax
	movq	%rax, %rdx
	movq	-48(%rbp), %rax
	addq	%rdx, %rax
	movzbl	(%rax), %eax
	movb	%al, -61(%rbp)
	movzbl	-61(%rbp), %edx
	movl	%edx, %eax
	sall	$3, %eax
	addl	%edx, %eax
	addl	%eax, -56(%rbp)
	movzbl	-61(%rbp), %eax
	addl	%eax, -60(%rbp)
	movzbl	-61(%rbp), %eax
	movl	%eax, %edx
	sall	$2, %eax
	subl	%eax, %edx
	movl	%edx, %eax
	addl	%eax, -28(%rbp)
	movq	-40(%rbp), %rax
	leaq	1(%rax), %rdx
	movq	%rdx, -40(%rbp)
	movzbl	(%rax), %eax
	movzbl	%al, %eax
	negq	%rax
	movq	%rax, %rdx
	movq	-48(%rbp), %rax
	addq	%rdx, %rax
	movzbl	(%rax), %eax
	movb	%al, -61(%rbp)
	movzbl	-61(%rbp), %eax
	sall	$2, %eax
	addl	%eax, -56(%rbp)
	movzbl	-61(%rbp), %eax
	addl	%eax, -60(%rbp)
	movzbl	-61(%rbp), %eax
	addl	%eax, %eax
	subl	%eax, -28(%rbp)
	movq	-40(%rbp), %rax
	leaq	1(%rax), %rdx
	movq	%rdx, -40(%rbp)
	movzbl	(%rax), %eax
	movzbl	%al, %eax
	negq	%rax
	movq	%rax, %rdx
	movq	-48(%rbp), %rax
	addq	%rdx, %rax
	movzbl	(%rax), %eax
	movb	%al, -61(%rbp)
	movzbl	-61(%rbp), %eax
	addl	%eax, -56(%rbp)
	movzbl	-61(%rbp), %eax
	addl	%eax, -60(%rbp)
	movzbl	-61(%rbp), %eax
	subl	%eax, -28(%rbp)
	movq	-40(%rbp), %rax
	leaq	1(%rax), %rdx
	movq	%rdx, -40(%rbp)
	movzbl	(%rax), %eax
	movzbl	%al, %eax
	negq	%rax
	movq	%rax, %rdx
	movq	-48(%rbp), %rax
	addq	%rdx, %rax
	movzbl	(%rax), %eax
	movb	%al, -61(%rbp)
	movzbl	-61(%rbp), %eax
	addl	%eax, -60(%rbp)
	movq	-40(%rbp), %rax
	leaq	1(%rax), %rdx
	movq	%rdx, -40(%rbp)
	movzbl	(%rax), %eax
	movzbl	%al, %eax
	negq	%rax
	movq	%rax, %rdx
	movq	-48(%rbp), %rax
	addq	%rdx, %rax
	movzbl	(%rax), %eax
	movb	%al, -61(%rbp)
	movzbl	-61(%rbp), %eax
	addl	%eax, -56(%rbp)
	movzbl	-61(%rbp), %eax
	addl	%eax, -60(%rbp)
	movzbl	-61(%rbp), %eax
	addl	%eax, -28(%rbp)
	movq	-40(%rbp), %rax
	leaq	1(%rax), %rdx
	movq	%rdx, -40(%rbp)
	movzbl	(%rax), %eax
	movzbl	%al, %eax
	negq	%rax
	movq	%rax, %rdx
	movq	-48(%rbp), %rax
	addq	%rdx, %rax
	movzbl	(%rax), %eax
	movb	%al, -61(%rbp)
	movzbl	-61(%rbp), %eax
	sall	$2, %eax
	addl	%eax, -56(%rbp)
	movzbl	-61(%rbp), %eax
	addl	%eax, -60(%rbp)
	movzbl	-61(%rbp), %eax
	addl	%eax, %eax
	addl	%eax, -28(%rbp)
	movq	-40(%rbp), %rax
	movzbl	(%rax), %eax
	movzbl	%al, %eax
	negq	%rax
	movq	%rax, %rdx
	movq	-48(%rbp), %rax
	addq	%rdx, %rax
	movzbl	(%rax), %eax
	movb	%al, -61(%rbp)
	movzbl	-61(%rbp), %edx
	movl	%edx, %eax
	sall	$3, %eax
	addl	%edx, %eax
	addl	%eax, -56(%rbp)
	movzbl	-61(%rbp), %eax
	addl	%eax, -60(%rbp)
	movzbl	-61(%rbp), %edx
	movl	%edx, %eax
	addl	%eax, %eax
	addl	%edx, %eax
	addl	%eax, -28(%rbp)
	movl	-104(%rbp), %eax
	cltq
	subq	$5, %rax
	addq	%rax, -40(%rbp)
	movq	-40(%rbp), %rax
	leaq	1(%rax), %rdx
	movq	%rdx, -40(%rbp)
	movzbl	(%rax), %eax
	movzbl	%al, %eax
	negq	%rax
	movq	%rax, %rdx
	movq	-48(%rbp), %rax
	addq	%rdx, %rax
	movzbl	(%rax), %eax
	movb	%al, -61(%rbp)
	movzbl	-61(%rbp), %eax
	sall	$2, %eax
	addl	%eax, -56(%rbp)
	movzbl	-61(%rbp), %eax
	sall	$2, %eax
	addl	%eax, -60(%rbp)
	movzbl	-61(%rbp), %eax
	sall	$2, %eax
	subl	%eax, -28(%rbp)
	movq	-40(%rbp), %rax
	leaq	1(%rax), %rdx
	movq	%rdx, -40(%rbp)
	movzbl	(%rax), %eax
	movzbl	%al, %eax
	negq	%rax
	movq	%rax, %rdx
	movq	-48(%rbp), %rax
	addq	%rdx, %rax
	movzbl	(%rax), %eax
	movb	%al, -61(%rbp)
	movzbl	-61(%rbp), %eax
	addl	%eax, -56(%rbp)
	movzbl	-61(%rbp), %eax
	sall	$2, %eax
	addl	%eax, -60(%rbp)
	movzbl	-61(%rbp), %eax
	addl	%eax, %eax
	subl	%eax, -28(%rbp)
	movq	-40(%rbp), %rax
	leaq	1(%rax), %rdx
	movq	%rdx, -40(%rbp)
	movzbl	(%rax), %eax
	movzbl	%al, %eax
	negq	%rax
	movq	%rax, %rdx
	movq	-48(%rbp), %rax
	addq	%rdx, %rax
	movzbl	(%rax), %eax
	movb	%al, -61(%rbp)
	movzbl	-61(%rbp), %eax
	sall	$2, %eax
	addl	%eax, -60(%rbp)
	movq	-40(%rbp), %rax
	leaq	1(%rax), %rdx
	movq	%rdx, -40(%rbp)
	movzbl	(%rax), %eax
	movzbl	%al, %eax
	negq	%rax
	movq	%rax, %rdx
	movq	-48(%rbp), %rax
	addq	%rdx, %rax
	movzbl	(%rax), %eax
	movb	%al, -61(%rbp)
	movzbl	-61(%rbp), %eax
	addl	%eax, -56(%rbp)
	movzbl	-61(%rbp), %eax
	sall	$2, %eax
	addl	%eax, -60(%rbp)
	movzbl	-61(%rbp), %eax
	addl	%eax, %eax
	addl	%eax, -28(%rbp)
	movq	-40(%rbp), %rax
	movzbl	(%rax), %eax
	movzbl	%al, %eax
	negq	%rax
	movq	%rax, %rdx
	movq	-48(%rbp), %rax
	addq	%rdx, %rax
	movzbl	(%rax), %eax
	movb	%al, -61(%rbp)
	movzbl	-61(%rbp), %eax
	sall	$2, %eax
	addl	%eax, -56(%rbp)
	movzbl	-61(%rbp), %eax
	sall	$2, %eax
	addl	%eax, -60(%rbp)
	movzbl	-61(%rbp), %eax
	sall	$2, %eax
	addl	%eax, -28(%rbp)
	movl	-104(%rbp), %eax
	cltq
	subq	$3, %rax
	addq	%rax, -40(%rbp)
	movq	-40(%rbp), %rax
	leaq	1(%rax), %rdx
	movq	%rdx, -40(%rbp)
	movzbl	(%rax), %eax
	movzbl	%al, %eax
	negq	%rax
	movq	%rax, %rdx
	movq	-48(%rbp), %rax
	addq	%rdx, %rax
	movzbl	(%rax), %eax
	movb	%al, -61(%rbp)
	movzbl	-61(%rbp), %eax
	addl	%eax, -56(%rbp)
	movzbl	-61(%rbp), %edx
	movl	%edx, %eax
	sall	$3, %eax
	addl	%edx, %eax
	addl	%eax, -60(%rbp)
	movzbl	-61(%rbp), %eax
	movl	%eax, %edx
	sall	$2, %eax
	subl	%eax, %edx
	movl	%edx, %eax
	addl	%eax, -28(%rbp)
	movq	-40(%rbp), %rax
	leaq	1(%rax), %rdx
	movq	%rdx, -40(%rbp)
	movzbl	(%rax), %eax
	movzbl	%al, %eax
	negq	%rax
	movq	%rax, %rdx
	movq	-48(%rbp), %rax
	addq	%rdx, %rax
	movzbl	(%rax), %eax
	movb	%al, -61(%rbp)
	movzbl	-61(%rbp), %edx
	movl	%edx, %eax
	sall	$3, %eax
	addl	%edx, %eax
	addl	%eax, -60(%rbp)
	movq	-40(%rbp), %rax
	movzbl	(%rax), %eax
	movzbl	%al, %eax
	negq	%rax
	movq	%rax, %rdx
	movq	-48(%rbp), %rax
	addq	%rdx, %rax
	movzbl	(%rax), %eax
	movb	%al, -61(%rbp)
	movzbl	-61(%rbp), %eax
	addl	%eax, -56(%rbp)
	movzbl	-61(%rbp), %edx
	movl	%edx, %eax
	sall	$3, %eax
	addl	%edx, %eax
	addl	%eax, -60(%rbp)
	movzbl	-61(%rbp), %edx
	movl	%edx, %eax
	addl	%eax, %eax
	addl	%edx, %eax
	addl	%eax, -28(%rbp)
	cmpl	$0, -60(%rbp)
	jne	.L166
	movss	.LC35(%rip), %xmm0
	movss	%xmm0, -4(%rbp)
	jmp	.L167
.L166:
	cvtsi2ss	-56(%rbp), %xmm0
	cvtsi2ss	-60(%rbp), %xmm1
	divss	%xmm1, %xmm0
	movss	%xmm0, -4(%rbp)
.L167:
	movss	.LC37(%rip), %xmm0
	comiss	-4(%rbp), %xmm0
	jbe	.L186
	movl	$0, -20(%rbp)
	movl	$1, -24(%rbp)
	jmp	.L170
.L186:
	movss	-4(%rbp), %xmm0
	comiss	.LC38(%rip), %xmm0
	jbe	.L187
	movl	$1, -20(%rbp)
	movl	$0, -24(%rbp)
	jmp	.L170
.L187:
	cmpl	$0, -28(%rbp)
	jle	.L173
	movl	$-1, -20(%rbp)
	movl	$1, -24(%rbp)
	jmp	.L170
.L173:
	movl	$1, -20(%rbp)
	movl	$1, -24(%rbp)
.L170:
	movl	-12(%rbp), %edx
	movl	-20(%rbp), %eax
	addl	%edx, %eax
	imull	-104(%rbp), %eax
	movl	%eax, %edx
	movl	-16(%rbp), %eax
	addl	%eax, %edx
	movl	-24(%rbp), %eax
	addl	%edx, %eax
	cltq
	leaq	0(,%rax,4), %rdx
	movq	-80(%rbp), %rax
	addq	%rdx, %rax
	movl	(%rax), %eax
	cmpl	%eax, -52(%rbp)
	jle	.L148
	movl	-12(%rbp), %eax
	subl	-20(%rbp), %eax
	imull	-104(%rbp), %eax
	movl	%eax, %edx
	movl	-16(%rbp), %eax
	addl	%edx, %eax
	subl	-24(%rbp), %eax
	cltq
	leaq	0(,%rax,4), %rdx
	movq	-80(%rbp), %rax
	addq	%rdx, %rax
	movl	(%rax), %eax
	cmpl	%eax, -52(%rbp)
	jl	.L148
	movl	-20(%rbp), %eax
	leal	(%rax,%rax), %edx
	movl	-12(%rbp), %eax
	addl	%edx, %eax
	imull	-104(%rbp), %eax
	movl	%eax, %edx
	movl	-16(%rbp), %eax
	addl	%eax, %edx
	movl	-24(%rbp), %eax
	addl	%eax, %eax
	addl	%edx, %eax
	cltq
	leaq	0(,%rax,4), %rdx
	movq	-80(%rbp), %rax
	addq	%rdx, %rax
	movl	(%rax), %eax
	cmpl	%eax, -52(%rbp)
	jle	.L148
	movl	-20(%rbp), %eax
	leal	(%rax,%rax), %edx
	movl	-12(%rbp), %eax
	subl	%edx, %eax
	imull	-104(%rbp), %eax
	movl	%eax, %edx
	movl	-16(%rbp), %eax
	addl	%eax, %edx
	movl	-24(%rbp), %eax
	addl	%eax, %eax
	subl	%eax, %edx
	movl	%edx, %eax
	cltq
	leaq	0(,%rax,4), %rdx
	movq	-80(%rbp), %rax
	addq	%rdx, %rax
	movl	(%rax), %eax
	cmpl	%eax, -52(%rbp)
	jl	.L148
	movl	-12(%rbp), %eax
	imull	-104(%rbp), %eax
	movl	%eax, %edx
	movl	-16(%rbp), %eax
	addl	%edx, %eax
	movslq	%eax, %rdx
	movq	-88(%rbp), %rax
	addq	%rdx, %rax
	movb	$2, (%rax)
.L148:
	addl	$1, -16(%rbp)
.L147:
	movl	-104(%rbp), %eax
	subl	$4, %eax
	cmpl	%eax, -16(%rbp)
	jl	.L174
	addl	$1, -12(%rbp)
.L146:
	movl	16(%rbp), %eax
	subl	$4, %eax
	cmpl	%eax, -12(%rbp)
	jl	.L175
	nop
	leave
	.cfi_def_cfa 7, 8
	ret
	.cfi_endproc
.LFE18:
	.size	susan_edges, .-susan_edges
	.globl	susan_edges_small
	.type	susan_edges_small, @function
susan_edges_small:
.LFB19:
	.cfi_startproc
	pushq	%rbp
	.cfi_def_cfa_offset 16
	.cfi_offset 6, -16
	movq	%rsp, %rbp
	.cfi_def_cfa_register 6
	subq	$112, %rsp
	movq	%rdi, -72(%rbp)
	movq	%rsi, -80(%rbp)
	movq	%rdx, -88(%rbp)
	movq	%rcx, -96(%rbp)
	movl	%r8d, -100(%rbp)
	movl	%r9d, -104(%rbp)
	movl	-104(%rbp), %eax
	imull	16(%rbp), %eax
	cltq
	leaq	0(,%rax,4), %rdx
	movq	-80(%rbp), %rax
	movl	$0, %esi
	movq	%rax, %rdi
	call	memset@PLT
	movl	$730, -100(%rbp)
	movl	$1, -12(%rbp)
	jmp	.L189
.L193:
	movl	$1, -16(%rbp)
	jmp	.L190
.L192:
	movl	$100, -32(%rbp)
	movl	-12(%rbp), %eax
	subl	$1, %eax
	imull	-104(%rbp), %eax
	movslq	%eax, %rdx
	movl	-16(%rbp), %eax
	cltq
	addq	%rdx, %rax
	leaq	-1(%rax), %rdx
	movq	-72(%rbp), %rax
	addq	%rdx, %rax
	movq	%rax, -40(%rbp)
	movl	-12(%rbp), %eax
	imull	-104(%rbp), %eax
	movl	%eax, %edx
	movl	-16(%rbp), %eax
	addl	%edx, %eax
	movslq	%eax, %rdx
	movq	-72(%rbp), %rax
	addq	%rdx, %rax
	movzbl	(%rax), %eax
	movzbl	%al, %edx
	movq	-96(%rbp), %rax
	addq	%rdx, %rax
	movq	%rax, -48(%rbp)
	movq	-40(%rbp), %rax
	leaq	1(%rax), %rdx
	movq	%rdx, -40(%rbp)
	movzbl	(%rax), %eax
	movzbl	%al, %eax
	negq	%rax
	movq	%rax, %rdx
	movq	-48(%rbp), %rax
	addq	%rdx, %rax
	movzbl	(%rax), %eax
	movzbl	%al, %eax
	addl	%eax, -32(%rbp)
	movq	-40(%rbp), %rax
	leaq	1(%rax), %rdx
	movq	%rdx, -40(%rbp)
	movzbl	(%rax), %eax
	movzbl	%al, %eax
	negq	%rax
	movq	%rax, %rdx
	movq	-48(%rbp), %rax
	addq	%rdx, %rax
	movzbl	(%rax), %eax
	movzbl	%al, %eax
	addl	%eax, -32(%rbp)
	movq	-40(%rbp), %rax
	movzbl	(%rax), %eax
	movzbl	%al, %eax
	negq	%rax
	movq	%rax, %rdx
	movq	-48(%rbp), %rax
	addq	%rdx, %rax
	movzbl	(%rax), %eax
	movzbl	%al, %eax
	addl	%eax, -32(%rbp)
	movl	-104(%rbp), %eax
	cltq
	subq	$2, %rax
	addq	%rax, -40(%rbp)
	movq	-40(%rbp), %rax
	movzbl	(%rax), %eax
	movzbl	%al, %eax
	negq	%rax
	movq	%rax, %rdx
	movq	-48(%rbp), %rax
	addq	%rdx, %rax
	movzbl	(%rax), %eax
	movzbl	%al, %eax
	addl	%eax, -32(%rbp)
	addq	$2, -40(%rbp)
	movq	-40(%rbp), %rax
	movzbl	(%rax), %eax
	movzbl	%al, %eax
	negq	%rax
	movq	%rax, %rdx
	movq	-48(%rbp), %rax
	addq	%rdx, %rax
	movzbl	(%rax), %eax
	movzbl	%al, %eax
	addl	%eax, -32(%rbp)
	movl	-104(%rbp), %eax
	cltq
	subq	$2, %rax
	addq	%rax, -40(%rbp)
	movq	-40(%rbp), %rax
	leaq	1(%rax), %rdx
	movq	%rdx, -40(%rbp)
	movzbl	(%rax), %eax
	movzbl	%al, %eax
	negq	%rax
	movq	%rax, %rdx
	movq	-48(%rbp), %rax
	addq	%rdx, %rax
	movzbl	(%rax), %eax
	movzbl	%al, %eax
	addl	%eax, -32(%rbp)
	movq	-40(%rbp), %rax
	leaq	1(%rax), %rdx
	movq	%rdx, -40(%rbp)
	movzbl	(%rax), %eax
	movzbl	%al, %eax
	negq	%rax
	movq	%rax, %rdx
	movq	-48(%rbp), %rax
	addq	%rdx, %rax
	movzbl	(%rax), %eax
	movzbl	%al, %eax
	addl	%eax, -32(%rbp)
	movq	-40(%rbp), %rax
	movzbl	(%rax), %eax
	movzbl	%al, %eax
	negq	%rax
	movq	%rax, %rdx
	movq	-48(%rbp), %rax
	addq	%rdx, %rax
	movzbl	(%rax), %eax
	movzbl	%al, %eax
	addl	%eax, -32(%rbp)
	movl	-32(%rbp), %eax
	cmpl	-100(%rbp), %eax
	jg	.L191
	movl	-12(%rbp), %eax
	imull	-104(%rbp), %eax
	movl	%eax, %edx
	movl	-16(%rbp), %eax
	addl	%edx, %eax
	cltq
	leaq	0(,%rax,4), %rdx
	movq	-80(%rbp), %rax
	addq	%rax, %rdx
	movl	-100(%rbp), %eax
	subl	-32(%rbp), %eax
	movl	%eax, (%rdx)
.L191:
	addl	$1, -16(%rbp)
.L190:
	movl	-104(%rbp), %eax
	subl	$1, %eax
	cmpl	%eax, -16(%rbp)
	jl	.L192
	addl	$1, -12(%rbp)
.L189:
	movl	16(%rbp), %eax
	subl	$1, %eax
	cmpl	%eax, -12(%rbp)
	jl	.L193
	movl	$2, -12(%rbp)
	jmp	.L194
.L223:
	movl	$2, -16(%rbp)
	jmp	.L195
.L222:
	movl	-12(%rbp), %eax
	imull	-104(%rbp), %eax
	movl	%eax, %edx
	movl	-16(%rbp), %eax
	addl	%edx, %eax
	cltq
	leaq	0(,%rax,4), %rdx
	movq	-80(%rbp), %rax
	addq	%rdx, %rax
	movl	(%rax), %eax
	testl	%eax, %eax
	jle	.L196
	movl	-12(%rbp), %eax
	imull	-104(%rbp), %eax
	movl	%eax, %edx
	movl	-16(%rbp), %eax
	addl	%edx, %eax
	cltq
	leaq	0(,%rax,4), %rdx
	movq	-80(%rbp), %rax
	addq	%rdx, %rax
	movl	(%rax), %eax
	movl	%eax, -52(%rbp)
	movl	-100(%rbp), %eax
	subl	-52(%rbp), %eax
	movl	%eax, -32(%rbp)
	movl	-12(%rbp), %eax
	imull	-104(%rbp), %eax
	movl	%eax, %edx
	movl	-16(%rbp), %eax
	addl	%edx, %eax
	movslq	%eax, %rdx
	movq	-72(%rbp), %rax
	addq	%rdx, %rax
	movzbl	(%rax), %eax
	movzbl	%al, %edx
	movq	-96(%rbp), %rax
	addq	%rdx, %rax
	movq	%rax, -48(%rbp)
	cmpl	$250, -32(%rbp)
	jle	.L197
	movl	-12(%rbp), %eax
	subl	$1, %eax
	imull	-104(%rbp), %eax
	movslq	%eax, %rdx
	movl	-16(%rbp), %eax
	cltq
	addq	%rdx, %rax
	leaq	-1(%rax), %rdx
	movq	-72(%rbp), %rax
	addq	%rdx, %rax
	movq	%rax, -40(%rbp)
	movl	$0, -56(%rbp)
	movl	$0, -60(%rbp)
	movq	-40(%rbp), %rax
	leaq	1(%rax), %rdx
	movq	%rdx, -40(%rbp)
	movzbl	(%rax), %eax
	movzbl	%al, %eax
	negq	%rax
	movq	%rax, %rdx
	movq	-48(%rbp), %rax
	addq	%rdx, %rax
	movzbl	(%rax), %eax
	movb	%al, -61(%rbp)
	movzbl	-61(%rbp), %eax
	subl	%eax, -56(%rbp)
	movzbl	-61(%rbp), %eax
	subl	%eax, -60(%rbp)
	movq	-40(%rbp), %rax
	leaq	1(%rax), %rdx
	movq	%rdx, -40(%rbp)
	movzbl	(%rax), %eax
	movzbl	%al, %eax
	negq	%rax
	movq	%rax, %rdx
	movq	-48(%rbp), %rax
	addq	%rdx, %rax
	movzbl	(%rax), %eax
	movb	%al, -61(%rbp)
	movzbl	-61(%rbp), %eax
	subl	%eax, -60(%rbp)
	movq	-40(%rbp), %rax
	movzbl	(%rax), %eax
	movzbl	%al, %eax
	negq	%rax
	movq	%rax, %rdx
	movq	-48(%rbp), %rax
	addq	%rdx, %rax
	movzbl	(%rax), %eax
	movb	%al, -61(%rbp)
	movzbl	-61(%rbp), %eax
	addl	%eax, -56(%rbp)
	movzbl	-61(%rbp), %eax
	subl	%eax, -60(%rbp)
	movl	-104(%rbp), %eax
	cltq
	subq	$2, %rax
	addq	%rax, -40(%rbp)
	movq	-40(%rbp), %rax
	movzbl	(%rax), %eax
	movzbl	%al, %eax
	negq	%rax
	movq	%rax, %rdx
	movq	-48(%rbp), %rax
	addq	%rdx, %rax
	movzbl	(%rax), %eax
	movb	%al, -61(%rbp)
	movzbl	-61(%rbp), %eax
	subl	%eax, -56(%rbp)
	addq	$2, -40(%rbp)
	movq	-40(%rbp), %rax
	movzbl	(%rax), %eax
	movzbl	%al, %eax
	negq	%rax
	movq	%rax, %rdx
	movq	-48(%rbp), %rax
	addq	%rdx, %rax
	movzbl	(%rax), %eax
	movb	%al, -61(%rbp)
	movzbl	-61(%rbp), %eax
	addl	%eax, -56(%rbp)
	movl	-104(%rbp), %eax
	cltq
	subq	$2, %rax
	addq	%rax, -40(%rbp)
	movq	-40(%rbp), %rax
	leaq	1(%rax), %rdx
	movq	%rdx, -40(%rbp)
	movzbl	(%rax), %eax
	movzbl	%al, %eax
	negq	%rax
	movq	%rax, %rdx
	movq	-48(%rbp), %rax
	addq	%rdx, %rax
	movzbl	(%rax), %eax
	movb	%al, -61(%rbp)
	movzbl	-61(%rbp), %eax
	subl	%eax, -56(%rbp)
	movzbl	-61(%rbp), %eax
	addl	%eax, -60(%rbp)
	movq	-40(%rbp), %rax
	leaq	1(%rax), %rdx
	movq	%rdx, -40(%rbp)
	movzbl	(%rax), %eax
	movzbl	%al, %eax
	negq	%rax
	movq	%rax, %rdx
	movq	-48(%rbp), %rax
	addq	%rdx, %rax
	movzbl	(%rax), %eax
	movb	%al, -61(%rbp)
	movzbl	-61(%rbp), %eax
	addl	%eax, -60(%rbp)
	movq	-40(%rbp), %rax
	movzbl	(%rax), %eax
	movzbl	%al, %eax
	negq	%rax
	movq	%rax, %rdx
	movq	-48(%rbp), %rax
	addq	%rdx, %rax
	movzbl	(%rax), %eax
	movb	%al, -61(%rbp)
	movzbl	-61(%rbp), %eax
	addl	%eax, -56(%rbp)
	movzbl	-61(%rbp), %eax
	addl	%eax, -60(%rbp)
	movl	-56(%rbp), %eax
	imull	-56(%rbp), %eax
	movl	%eax, %edx
	movl	-60(%rbp), %eax
	imull	-60(%rbp), %eax
	addl	%edx, %eax
	cvtsi2ss	%eax, %xmm0
	cvtss2sd	%xmm0, %xmm0
	call	sqrt@PLT
	cvtsd2ss	%xmm0, %xmm3
	movss	%xmm3, -4(%rbp)
	cvtss2sd	-4(%rbp), %xmm0
	cvtsi2ss	-32(%rbp), %xmm1
	cvtss2sd	%xmm1, %xmm2
	movsd	.LC39(%rip), %xmm1
	mulsd	%xmm2, %xmm1
	comisd	%xmm1, %xmm0
	jbe	.L230
	movl	$0, -8(%rbp)
	cmpl	$0, -56(%rbp)
	jne	.L200
	movss	.LC35(%rip), %xmm0
	movss	%xmm0, -4(%rbp)
	jmp	.L201
.L200:
	cvtsi2ss	-60(%rbp), %xmm0
	cvtsi2ss	-56(%rbp), %xmm1
	divss	%xmm1, %xmm0
	movss	%xmm0, -4(%rbp)
.L201:
	pxor	%xmm0, %xmm0
	comiss	-4(%rbp), %xmm0
	jbe	.L231
	movss	-4(%rbp), %xmm0
	movss	.LC25(%rip), %xmm1
	xorps	%xmm1, %xmm0
	movss	%xmm0, -4(%rbp)
	movl	$-1, -28(%rbp)
	jmp	.L204
.L231:
	movl	$1, -28(%rbp)
.L204:
	movss	.LC37(%rip), %xmm0
	comiss	-4(%rbp), %xmm0
	jbe	.L232
	movl	$0, -20(%rbp)
	movl	$1, -24(%rbp)
	jmp	.L207
.L232:
	movss	-4(%rbp), %xmm0
	comiss	.LC38(%rip), %xmm0
	jbe	.L233
	movl	$1, -20(%rbp)
	movl	$0, -24(%rbp)
	jmp	.L207
.L233:
	cmpl	$0, -28(%rbp)
	jle	.L210
	movl	$1, -20(%rbp)
	movl	$1, -24(%rbp)
	jmp	.L207
.L210:
	movl	$-1, -20(%rbp)
	movl	$1, -24(%rbp)
.L207:
	movl	-12(%rbp), %edx
	movl	-20(%rbp), %eax
	addl	%edx, %eax
	imull	-104(%rbp), %eax
	movl	%eax, %edx
	movl	-16(%rbp), %eax
	addl	%eax, %edx
	movl	-24(%rbp), %eax
	addl	%edx, %eax
	cltq
	leaq	0(,%rax,4), %rdx
	movq	-80(%rbp), %rax
	addq	%rdx, %rax
	movl	(%rax), %eax
	cmpl	%eax, -52(%rbp)
	jle	.L213
	movl	-12(%rbp), %eax
	subl	-20(%rbp), %eax
	imull	-104(%rbp), %eax
	movl	%eax, %edx
	movl	-16(%rbp), %eax
	addl	%edx, %eax
	subl	-24(%rbp), %eax
	cltq
	leaq	0(,%rax,4), %rdx
	movq	-80(%rbp), %rax
	addq	%rdx, %rax
	movl	(%rax), %eax
	cmpl	%eax, -52(%rbp)
	jl	.L213
	movl	-12(%rbp), %eax
	imull	-104(%rbp), %eax
	movl	%eax, %edx
	movl	-16(%rbp), %eax
	addl	%edx, %eax
	movslq	%eax, %rdx
	movq	-88(%rbp), %rax
	addq	%rdx, %rax
	movb	$1, (%rax)
	jmp	.L213
.L230:
	movl	$1, -8(%rbp)
	jmp	.L213
.L197:
	movl	$1, -8(%rbp)
.L213:
	cmpl	$1, -8(%rbp)
	jne	.L196
	movl	-12(%rbp), %eax
	subl	$1, %eax
	imull	-104(%rbp), %eax
	movslq	%eax, %rdx
	movl	-16(%rbp), %eax
	cltq
	addq	%rdx, %rax
	leaq	-1(%rax), %rdx
	movq	-72(%rbp), %rax
	addq	%rdx, %rax
	movq	%rax, -40(%rbp)
	movl	$0, -56(%rbp)
	movl	$0, -60(%rbp)
	movl	$0, -28(%rbp)
	movq	-40(%rbp), %rax
	leaq	1(%rax), %rdx
	movq	%rdx, -40(%rbp)
	movzbl	(%rax), %eax
	movzbl	%al, %eax
	negq	%rax
	movq	%rax, %rdx
	movq	-48(%rbp), %rax
	addq	%rdx, %rax
	movzbl	(%rax), %eax
	movb	%al, -61(%rbp)
	movzbl	-61(%rbp), %eax
	addl	%eax, -56(%rbp)
	movzbl	-61(%rbp), %eax
	addl	%eax, -60(%rbp)
	movzbl	-61(%rbp), %eax
	addl	%eax, -28(%rbp)
	movq	-40(%rbp), %rax
	leaq	1(%rax), %rdx
	movq	%rdx, -40(%rbp)
	movzbl	(%rax), %eax
	movzbl	%al, %eax
	negq	%rax
	movq	%rax, %rdx
	movq	-48(%rbp), %rax
	addq	%rdx, %rax
	movzbl	(%rax), %eax
	movb	%al, -61(%rbp)
	movzbl	-61(%rbp), %eax
	addl	%eax, -60(%rbp)
	movq	-40(%rbp), %rax
	movzbl	(%rax), %eax
	movzbl	%al, %eax
	negq	%rax
	movq	%rax, %rdx
	movq	-48(%rbp), %rax
	addq	%rdx, %rax
	movzbl	(%rax), %eax
	movb	%al, -61(%rbp)
	movzbl	-61(%rbp), %eax
	addl	%eax, -56(%rbp)
	movzbl	-61(%rbp), %eax
	addl	%eax, -60(%rbp)
	movzbl	-61(%rbp), %eax
	subl	%eax, -28(%rbp)
	movl	-104(%rbp), %eax
	cltq
	subq	$2, %rax
	addq	%rax, -40(%rbp)
	movq	-40(%rbp), %rax
	movzbl	(%rax), %eax
	movzbl	%al, %eax
	negq	%rax
	movq	%rax, %rdx
	movq	-48(%rbp), %rax
	addq	%rdx, %rax
	movzbl	(%rax), %eax
	movb	%al, -61(%rbp)
	movzbl	-61(%rbp), %eax
	addl	%eax, -56(%rbp)
	addq	$2, -40(%rbp)
	movq	-40(%rbp), %rax
	movzbl	(%rax), %eax
	movzbl	%al, %eax
	negq	%rax
	movq	%rax, %rdx
	movq	-48(%rbp), %rax
	addq	%rdx, %rax
	movzbl	(%rax), %eax
	movb	%al, -61(%rbp)
	movzbl	-61(%rbp), %eax
	addl	%eax, -56(%rbp)
	movl	-104(%rbp), %eax
	cltq
	subq	$2, %rax
	addq	%rax, -40(%rbp)
	movq	-40(%rbp), %rax
	leaq	1(%rax), %rdx
	movq	%rdx, -40(%rbp)
	movzbl	(%rax), %eax
	movzbl	%al, %eax
	negq	%rax
	movq	%rax, %rdx
	movq	-48(%rbp), %rax
	addq	%rdx, %rax
	movzbl	(%rax), %eax
	movb	%al, -61(%rbp)
	movzbl	-61(%rbp), %eax
	addl	%eax, -56(%rbp)
	movzbl	-61(%rbp), %eax
	addl	%eax, -60(%rbp)
	movzbl	-61(%rbp), %eax
	subl	%eax, -28(%rbp)
	movq	-40(%rbp), %rax
	leaq	1(%rax), %rdx
	movq	%rdx, -40(%rbp)
	movzbl	(%rax), %eax
	movzbl	%al, %eax
	negq	%rax
	movq	%rax, %rdx
	movq	-48(%rbp), %rax
	addq	%rdx, %rax
	movzbl	(%rax), %eax
	movb	%al, -61(%rbp)
	movzbl	-61(%rbp), %eax
	addl	%eax, -60(%rbp)
	movq	-40(%rbp), %rax
	movzbl	(%rax), %eax
	movzbl	%al, %eax
	negq	%rax
	movq	%rax, %rdx
	movq	-48(%rbp), %rax
	addq	%rdx, %rax
	movzbl	(%rax), %eax
	movb	%al, -61(%rbp)
	movzbl	-61(%rbp), %eax
	addl	%eax, -56(%rbp)
	movzbl	-61(%rbp), %eax
	addl	%eax, -60(%rbp)
	movzbl	-61(%rbp), %eax
	addl	%eax, -28(%rbp)
	cmpl	$0, -60(%rbp)
	jne	.L214
	movss	.LC35(%rip), %xmm0
	movss	%xmm0, -4(%rbp)
	jmp	.L215
.L214:
	cvtsi2ss	-56(%rbp), %xmm0
	cvtsi2ss	-60(%rbp), %xmm1
	divss	%xmm1, %xmm0
	movss	%xmm0, -4(%rbp)
.L215:
	movss	.LC37(%rip), %xmm0
	comiss	-4(%rbp), %xmm0
	jbe	.L234
	movl	$0, -20(%rbp)
	movl	$1, -24(%rbp)
	jmp	.L218
.L234:
	movss	-4(%rbp), %xmm0
	comiss	.LC38(%rip), %xmm0
	jbe	.L235
	movl	$1, -20(%rbp)
	movl	$0, -24(%rbp)
	jmp	.L218
.L235:
	cmpl	$0, -28(%rbp)
	jle	.L221
	movl	$-1, -20(%rbp)
	movl	$1, -24(%rbp)
	jmp	.L218
.L221:
	movl	$1, -20(%rbp)
	movl	$1, -24(%rbp)
.L218:
	movl	-12(%rbp), %edx
	movl	-20(%rbp), %eax
	addl	%edx, %eax
	imull	-104(%rbp), %eax
	movl	%eax, %edx
	movl	-16(%rbp), %eax
	addl	%eax, %edx
	movl	-24(%rbp), %eax
	addl	%edx, %eax
	cltq
	leaq	0(,%rax,4), %rdx
	movq	-80(%rbp), %rax
	addq	%rdx, %rax
	movl	(%rax), %eax
	cmpl	%eax, -52(%rbp)
	jle	.L196
	movl	-12(%rbp), %eax
	subl	-20(%rbp), %eax
	imull	-104(%rbp), %eax
	movl	%eax, %edx
	movl	-16(%rbp), %eax
	addl	%edx, %eax
	subl	-24(%rbp), %eax
	cltq
	leaq	0(,%rax,4), %rdx
	movq	-80(%rbp), %rax
	addq	%rdx, %rax
	movl	(%rax), %eax
	cmpl	%eax, -52(%rbp)
	jl	.L196
	movl	-12(%rbp), %eax
	imull	-104(%rbp), %eax
	movl	%eax, %edx
	movl	-16(%rbp), %eax
	addl	%edx, %eax
	movslq	%eax, %rdx
	movq	-88(%rbp), %rax
	addq	%rdx, %rax
	movb	$2, (%rax)
.L196:
	addl	$1, -16(%rbp)
.L195:
	movl	-104(%rbp), %eax
	subl	$2, %eax
	cmpl	%eax, -16(%rbp)
	jl	.L222
	addl	$1, -12(%rbp)
.L194:
	movl	16(%rbp), %eax
	subl	$2, %eax
	cmpl	%eax, -12(%rbp)
	jl	.L223
	nop
	leave
	.cfi_def_cfa 7, 8
	ret
	.cfi_endproc
.LFE19:
	.size	susan_edges_small, .-susan_edges_small
	.globl	corner_draw
	.type	corner_draw, @function
corner_draw:
.LFB20:
	.cfi_startproc
	pushq	%rbp
	.cfi_def_cfa_offset 16
	.cfi_offset 6, -16
	movq	%rsp, %rbp
	.cfi_def_cfa_register 6
	movq	%rdi, -24(%rbp)
	movq	%rsi, -32(%rbp)
	movl	%edx, -36(%rbp)
	movl	%ecx, -40(%rbp)
	movl	$0, -4(%rbp)
	jmp	.L237
.L239:
	cmpl	$0, -40(%rbp)
	jne	.L238
	movl	-4(%rbp), %eax
	movslq	%eax, %rdx
	movq	%rdx, %rax
	addq	%rax, %rax
	addq	%rdx, %rax
	salq	$3, %rax
	movq	%rax, %rdx
	movq	-32(%rbp), %rax
	addq	%rdx, %rax
	movl	4(%rax), %eax
	subl	$1, %eax
	imull	-36(%rbp), %eax
	movslq	%eax, %rcx
	movl	-4(%rbp), %eax
	movslq	%eax, %rdx
	movq	%rdx, %rax
	addq	%rax, %rax
	addq	%rdx, %rax
	salq	$3, %rax
	movq	%rax, %rdx
	movq	-32(%rbp), %rax
	addq	%rdx, %rax
	movl	(%rax), %eax
	cltq
	addq	%rcx, %rax
	leaq	-1(%rax), %rdx
	movq	-24(%rbp), %rax
	addq	%rdx, %rax
	movq	%rax, -16(%rbp)
	movq	-16(%rbp), %rax
	leaq	1(%rax), %rdx
	movq	%rdx, -16(%rbp)
	movb	$-1, (%rax)
	movq	-16(%rbp), %rax
	leaq	1(%rax), %rdx
	movq	%rdx, -16(%rbp)
	movb	$-1, (%rax)
	movq	-16(%rbp), %rax
	movb	$-1, (%rax)
	movl	-36(%rbp), %eax
	cltq
	subq	$2, %rax
	addq	%rax, -16(%rbp)
	movq	-16(%rbp), %rax
	leaq	1(%rax), %rdx
	movq	%rdx, -16(%rbp)
	movb	$-1, (%rax)
	movq	-16(%rbp), %rax
	leaq	1(%rax), %rdx
	movq	%rdx, -16(%rbp)
	movb	$0, (%rax)
	movq	-16(%rbp), %rax
	movb	$-1, (%rax)
	movl	-36(%rbp), %eax
	cltq
	subq	$2, %rax
	addq	%rax, -16(%rbp)
	movq	-16(%rbp), %rax
	leaq	1(%rax), %rdx
	movq	%rdx, -16(%rbp)
	movb	$-1, (%rax)
	movq	-16(%rbp), %rax
	leaq	1(%rax), %rdx
	movq	%rdx, -16(%rbp)
	movb	$-1, (%rax)
	movq	-16(%rbp), %rax
	movb	$-1, (%rax)
	addl	$1, -4(%rbp)
	jmp	.L237
.L238:
	movl	-4(%rbp), %eax
	movslq	%eax, %rdx
	movq	%rdx, %rax
	addq	%rax, %rax
	addq	%rdx, %rax
	salq	$3, %rax
	movq	%rax, %rdx
	movq	-32(%rbp), %rax
	addq	%rdx, %rax
	movl	4(%rax), %eax
	imull	-36(%rbp), %eax
	movslq	%eax, %rcx
	movl	-4(%rbp), %eax
	movslq	%eax, %rdx
	movq	%rdx, %rax
	addq	%rax, %rax
	addq	%rdx, %rax
	salq	$3, %rax
	movq	%rax, %rdx
	movq	-32(%rbp), %rax
	addq	%rdx, %rax
	movl	(%rax), %eax
	cltq
	leaq	(%rcx,%rax), %rdx
	movq	-24(%rbp), %rax
	addq	%rdx, %rax
	movq	%rax, -16(%rbp)
	movq	-16(%rbp), %rax
	movb	$0, (%rax)
	addl	$1, -4(%rbp)
.L237:
	movl	-4(%rbp), %eax
	movslq	%eax, %rdx
	movq	%rdx, %rax
	addq	%rax, %rax
	addq	%rdx, %rax
	salq	$3, %rax
	movq	%rax, %rdx
	movq	-32(%rbp), %rax
	addq	%rdx, %rax
	movl	8(%rax), %eax
	cmpl	$7, %eax
	jne	.L239
	nop
	popq	%rbp
	.cfi_def_cfa 7, 8
	ret
	.cfi_endproc
.LFE20:
	.size	corner_draw, .-corner_draw
	.section	.rodata
.LC42:
	.string	"Too many corners.\n"
	.text
	.globl	susan_corners
	.type	susan_corners, @function
susan_corners:
.LFB21:
	.cfi_startproc
	pushq	%rbp
	.cfi_def_cfa_offset 16
	.cfi_offset 6, -16
	movq	%rsp, %rbp
	.cfi_def_cfa_register 6
	addq	$-128, %rsp
	movq	%rdi, -88(%rbp)
	movq	%rsi, -96(%rbp)
	movq	%rdx, -104(%rbp)
	movl	%ecx, -108(%rbp)
	movq	%r8, -120(%rbp)
	movl	%r9d, -112(%rbp)
	movl	-112(%rbp), %eax
	imull	16(%rbp), %eax
	cltq
	leaq	0(,%rax,4), %rdx
	movq	-96(%rbp), %rax
	movl	$0, %esi
	movq	%rax, %rdi
	call	memset@PLT
	movl	-112(%rbp), %eax
	imull	16(%rbp), %eax
	cltq
	salq	$2, %rax
	movq	%rax, %rdi
	call	malloc@PLT
	movq	%rax, -24(%rbp)
	movl	-112(%rbp), %eax
	imull	16(%rbp), %eax
	cltq
	salq	$2, %rax
	movq	%rax, %rdi
	call	malloc@PLT
	movq	%rax, -32(%rbp)
	movl	$5, -12(%rbp)
	jmp	.L241
.L269:
	movl	$5, -16(%rbp)
	jmp	.L242
.L268:
	movl	$100, -4(%rbp)
	movl	-12(%rbp), %eax
	subl	$3, %eax
	imull	-112(%rbp), %eax
	movslq	%eax, %rdx
	movl	-16(%rbp), %eax
	cltq
	addq	%rdx, %rax
	leaq	-1(%rax), %rdx
	movq	-88(%rbp), %rax
	addq	%rdx, %rax
	movq	%rax, -40(%rbp)
	movl	-12(%rbp), %eax
	imull	-112(%rbp), %eax
	movl	%eax, %edx
	movl	-16(%rbp), %eax
	addl	%edx, %eax
	movslq	%eax, %rdx
	movq	-88(%rbp), %rax
	addq	%rdx, %rax
	movzbl	(%rax), %eax
	movzbl	%al, %edx
	movq	-104(%rbp), %rax
	addq	%rdx, %rax
	movq	%rax, -48(%rbp)
	movq	-40(%rbp), %rax
	leaq	1(%rax), %rdx
	movq	%rdx, -40(%rbp)
	movzbl	(%rax), %eax
	movzbl	%al, %eax
	negq	%rax
	movq	%rax, %rdx
	movq	-48(%rbp), %rax
	addq	%rdx, %rax
	movzbl	(%rax), %eax
	movzbl	%al, %eax
	addl	%eax, -4(%rbp)
	movq	-40(%rbp), %rax
	leaq	1(%rax), %rdx
	movq	%rdx, -40(%rbp)
	movzbl	(%rax), %eax
	movzbl	%al, %eax
	negq	%rax
	movq	%rax, %rdx
	movq	-48(%rbp), %rax
	addq	%rdx, %rax
	movzbl	(%rax), %eax
	movzbl	%al, %eax
	addl	%eax, -4(%rbp)
	movq	-40(%rbp), %rax
	movzbl	(%rax), %eax
	movzbl	%al, %eax
	negq	%rax
	movq	%rax, %rdx
	movq	-48(%rbp), %rax
	addq	%rdx, %rax
	movzbl	(%rax), %eax
	movzbl	%al, %eax
	addl	%eax, -4(%rbp)
	movl	-112(%rbp), %eax
	cltq
	subq	$3, %rax
	addq	%rax, -40(%rbp)
	movq	-40(%rbp), %rax
	leaq	1(%rax), %rdx
	movq	%rdx, -40(%rbp)
	movzbl	(%rax), %eax
	movzbl	%al, %eax
	negq	%rax
	movq	%rax, %rdx
	movq	-48(%rbp), %rax
	addq	%rdx, %rax
	movzbl	(%rax), %eax
	movzbl	%al, %eax
	addl	%eax, -4(%rbp)
	movq	-40(%rbp), %rax
	leaq	1(%rax), %rdx
	movq	%rdx, -40(%rbp)
	movzbl	(%rax), %eax
	movzbl	%al, %eax
	negq	%rax
	movq	%rax, %rdx
	movq	-48(%rbp), %rax
	addq	%rdx, %rax
	movzbl	(%rax), %eax
	movzbl	%al, %eax
	addl	%eax, -4(%rbp)
	movq	-40(%rbp), %rax
	leaq	1(%rax), %rdx
	movq	%rdx, -40(%rbp)
	movzbl	(%rax), %eax
	movzbl	%al, %eax
	negq	%rax
	movq	%rax, %rdx
	movq	-48(%rbp), %rax
	addq	%rdx, %rax
	movzbl	(%rax), %eax
	movzbl	%al, %eax
	addl	%eax, -4(%rbp)
	movq	-40(%rbp), %rax
	leaq	1(%rax), %rdx
	movq	%rdx, -40(%rbp)
	movzbl	(%rax), %eax
	movzbl	%al, %eax
	negq	%rax
	movq	%rax, %rdx
	movq	-48(%rbp), %rax
	addq	%rdx, %rax
	movzbl	(%rax), %eax
	movzbl	%al, %eax
	addl	%eax, -4(%rbp)
	movq	-40(%rbp), %rax
	movzbl	(%rax), %eax
	movzbl	%al, %eax
	negq	%rax
	movq	%rax, %rdx
	movq	-48(%rbp), %rax
	addq	%rdx, %rax
	movzbl	(%rax), %eax
	movzbl	%al, %eax
	addl	%eax, -4(%rbp)
	movl	-112(%rbp), %eax
	cltq
	subq	$5, %rax
	addq	%rax, -40(%rbp)
	movq	-40(%rbp), %rax
	leaq	1(%rax), %rdx
	movq	%rdx, -40(%rbp)
	movzbl	(%rax), %eax
	movzbl	%al, %eax
	negq	%rax
	movq	%rax, %rdx
	movq	-48(%rbp), %rax
	addq	%rdx, %rax
	movzbl	(%rax), %eax
	movzbl	%al, %eax
	addl	%eax, -4(%rbp)
	movq	-40(%rbp), %rax
	leaq	1(%rax), %rdx
	movq	%rdx, -40(%rbp)
	movzbl	(%rax), %eax
	movzbl	%al, %eax
	negq	%rax
	movq	%rax, %rdx
	movq	-48(%rbp), %rax
	addq	%rdx, %rax
	movzbl	(%rax), %eax
	movzbl	%al, %eax
	addl	%eax, -4(%rbp)
	movq	-40(%rbp), %rax
	leaq	1(%rax), %rdx
	movq	%rdx, -40(%rbp)
	movzbl	(%rax), %eax
	movzbl	%al, %eax
	negq	%rax
	movq	%rax, %rdx
	movq	-48(%rbp), %rax
	addq	%rdx, %rax
	movzbl	(%rax), %eax
	movzbl	%al, %eax
	addl	%eax, -4(%rbp)
	movq	-40(%rbp), %rax
	leaq	1(%rax), %rdx
	movq	%rdx, -40(%rbp)
	movzbl	(%rax), %eax
	movzbl	%al, %eax
	negq	%rax
	movq	%rax, %rdx
	movq	-48(%rbp), %rax
	addq	%rdx, %rax
	movzbl	(%rax), %eax
	movzbl	%al, %eax
	addl	%eax, -4(%rbp)
	movq	-40(%rbp), %rax
	leaq	1(%rax), %rdx
	movq	%rdx, -40(%rbp)
	movzbl	(%rax), %eax
	movzbl	%al, %eax
	negq	%rax
	movq	%rax, %rdx
	movq	-48(%rbp), %rax
	addq	%rdx, %rax
	movzbl	(%rax), %eax
	movzbl	%al, %eax
	addl	%eax, -4(%rbp)
	movq	-40(%rbp), %rax
	leaq	1(%rax), %rdx
	movq	%rdx, -40(%rbp)
	movzbl	(%rax), %eax
	movzbl	%al, %eax
	negq	%rax
	movq	%rax, %rdx
	movq	-48(%rbp), %rax
	addq	%rdx, %rax
	movzbl	(%rax), %eax
	movzbl	%al, %eax
	addl	%eax, -4(%rbp)
	movq	-40(%rbp), %rax
	movzbl	(%rax), %eax
	movzbl	%al, %eax
	negq	%rax
	movq	%rax, %rdx
	movq	-48(%rbp), %rax
	addq	%rdx, %rax
	movzbl	(%rax), %eax
	movzbl	%al, %eax
	addl	%eax, -4(%rbp)
	movl	-112(%rbp), %eax
	cltq
	subq	$6, %rax
	addq	%rax, -40(%rbp)
	movq	-40(%rbp), %rax
	leaq	1(%rax), %rdx
	movq	%rdx, -40(%rbp)
	movzbl	(%rax), %eax
	movzbl	%al, %eax
	negq	%rax
	movq	%rax, %rdx
	movq	-48(%rbp), %rax
	addq	%rdx, %rax
	movzbl	(%rax), %eax
	movzbl	%al, %eax
	addl	%eax, -4(%rbp)
	movq	-40(%rbp), %rax
	leaq	1(%rax), %rdx
	movq	%rdx, -40(%rbp)
	movzbl	(%rax), %eax
	movzbl	%al, %eax
	negq	%rax
	movq	%rax, %rdx
	movq	-48(%rbp), %rax
	addq	%rdx, %rax
	movzbl	(%rax), %eax
	movzbl	%al, %eax
	addl	%eax, -4(%rbp)
	movq	-40(%rbp), %rax
	movzbl	(%rax), %eax
	movzbl	%al, %eax
	negq	%rax
	movq	%rax, %rdx
	movq	-48(%rbp), %rax
	addq	%rdx, %rax
	movzbl	(%rax), %eax
	movzbl	%al, %eax
	addl	%eax, -4(%rbp)
	movl	-4(%rbp), %eax
	cmpl	-108(%rbp), %eax
	jge	.L243
	addq	$2, -40(%rbp)
	movq	-40(%rbp), %rax
	leaq	1(%rax), %rdx
	movq	%rdx, -40(%rbp)
	movzbl	(%rax), %eax
	movzbl	%al, %eax
	negq	%rax
	movq	%rax, %rdx
	movq	-48(%rbp), %rax
	addq	%rdx, %rax
	movzbl	(%rax), %eax
	movzbl	%al, %eax
	addl	%eax, -4(%rbp)
	movl	-4(%rbp), %eax
	cmpl	-108(%rbp), %eax
	jge	.L243
	movq	-40(%rbp), %rax
	leaq	1(%rax), %rdx
	movq	%rdx, -40(%rbp)
	movzbl	(%rax), %eax
	movzbl	%al, %eax
	negq	%rax
	movq	%rax, %rdx
	movq	-48(%rbp), %rax
	addq	%rdx, %rax
	movzbl	(%rax), %eax
	movzbl	%al, %eax
	addl	%eax, -4(%rbp)
	movl	-4(%rbp), %eax
	cmpl	-108(%rbp), %eax
	jge	.L243
	movq	-40(%rbp), %rax
	movzbl	(%rax), %eax
	movzbl	%al, %eax
	negq	%rax
	movq	%rax, %rdx
	movq	-48(%rbp), %rax
	addq	%rdx, %rax
	movzbl	(%rax), %eax
	movzbl	%al, %eax
	addl	%eax, -4(%rbp)
	movl	-4(%rbp), %eax
	cmpl	-108(%rbp), %eax
	jge	.L243
	movl	-112(%rbp), %eax
	cltq
	subq	$6, %rax
	addq	%rax, -40(%rbp)
	movq	-40(%rbp), %rax
	leaq	1(%rax), %rdx
	movq	%rdx, -40(%rbp)
	movzbl	(%rax), %eax
	movzbl	%al, %eax
	negq	%rax
	movq	%rax, %rdx
	movq	-48(%rbp), %rax
	addq	%rdx, %rax
	movzbl	(%rax), %eax
	movzbl	%al, %eax
	addl	%eax, -4(%rbp)
	movl	-4(%rbp), %eax
	cmpl	-108(%rbp), %eax
	jge	.L243
	movq	-40(%rbp), %rax
	leaq	1(%rax), %rdx
	movq	%rdx, -40(%rbp)
	movzbl	(%rax), %eax
	movzbl	%al, %eax
	negq	%rax
	movq	%rax, %rdx
	movq	-48(%rbp), %rax
	addq	%rdx, %rax
	movzbl	(%rax), %eax
	movzbl	%al, %eax
	addl	%eax, -4(%rbp)
	movl	-4(%rbp), %eax
	cmpl	-108(%rbp), %eax
	jge	.L243
	movq	-40(%rbp), %rax
	leaq	1(%rax), %rdx
	movq	%rdx, -40(%rbp)
	movzbl	(%rax), %eax
	movzbl	%al, %eax
	negq	%rax
	movq	%rax, %rdx
	movq	-48(%rbp), %rax
	addq	%rdx, %rax
	movzbl	(%rax), %eax
	movzbl	%al, %eax
	addl	%eax, -4(%rbp)
	movl	-4(%rbp), %eax
	cmpl	-108(%rbp), %eax
	jge	.L243
	movq	-40(%rbp), %rax
	leaq	1(%rax), %rdx
	movq	%rdx, -40(%rbp)
	movzbl	(%rax), %eax
	movzbl	%al, %eax
	negq	%rax
	movq	%rax, %rdx
	movq	-48(%rbp), %rax
	addq	%rdx, %rax
	movzbl	(%rax), %eax
	movzbl	%al, %eax
	addl	%eax, -4(%rbp)
	movl	-4(%rbp), %eax
	cmpl	-108(%rbp), %eax
	jge	.L243
	movq	-40(%rbp), %rax
	leaq	1(%rax), %rdx
	movq	%rdx, -40(%rbp)
	movzbl	(%rax), %eax
	movzbl	%al, %eax
	negq	%rax
	movq	%rax, %rdx
	movq	-48(%rbp), %rax
	addq	%rdx, %rax
	movzbl	(%rax), %eax
	movzbl	%al, %eax
	addl	%eax, -4(%rbp)
	movl	-4(%rbp), %eax
	cmpl	-108(%rbp), %eax
	jge	.L243
	movq	-40(%rbp), %rax
	leaq	1(%rax), %rdx
	movq	%rdx, -40(%rbp)
	movzbl	(%rax), %eax
	movzbl	%al, %eax
	negq	%rax
	movq	%rax, %rdx
	movq	-48(%rbp), %rax
	addq	%rdx, %rax
	movzbl	(%rax), %eax
	movzbl	%al, %eax
	addl	%eax, -4(%rbp)
	movl	-4(%rbp), %eax
	cmpl	-108(%rbp), %eax
	jge	.L243
	movq	-40(%rbp), %rax
	movzbl	(%rax), %eax
	movzbl	%al, %eax
	negq	%rax
	movq	%rax, %rdx
	movq	-48(%rbp), %rax
	addq	%rdx, %rax
	movzbl	(%rax), %eax
	movzbl	%al, %eax
	addl	%eax, -4(%rbp)
	movl	-4(%rbp), %eax
	cmpl	-108(%rbp), %eax
	jge	.L243
	movl	-112(%rbp), %eax
	cltq
	subq	$5, %rax
	addq	%rax, -40(%rbp)
	movq	-40(%rbp), %rax
	leaq	1(%rax), %rdx
	movq	%rdx, -40(%rbp)
	movzbl	(%rax), %eax
	movzbl	%al, %eax
	negq	%rax
	movq	%rax, %rdx
	movq	-48(%rbp), %rax
	addq	%rdx, %rax
	movzbl	(%rax), %eax
	movzbl	%al, %eax
	addl	%eax, -4(%rbp)
	movl	-4(%rbp), %eax
	cmpl	-108(%rbp), %eax
	jge	.L243
	movq	-40(%rbp), %rax
	leaq	1(%rax), %rdx
	movq	%rdx, -40(%rbp)
	movzbl	(%rax), %eax
	movzbl	%al, %eax
	negq	%rax
	movq	%rax, %rdx
	movq	-48(%rbp), %rax
	addq	%rdx, %rax
	movzbl	(%rax), %eax
	movzbl	%al, %eax
	addl	%eax, -4(%rbp)
	movl	-4(%rbp), %eax
	cmpl	-108(%rbp), %eax
	jge	.L243
	movq	-40(%rbp), %rax
	leaq	1(%rax), %rdx
	movq	%rdx, -40(%rbp)
	movzbl	(%rax), %eax
	movzbl	%al, %eax
	negq	%rax
	movq	%rax, %rdx
	movq	-48(%rbp), %rax
	addq	%rdx, %rax
	movzbl	(%rax), %eax
	movzbl	%al, %eax
	addl	%eax, -4(%rbp)
	movl	-4(%rbp), %eax
	cmpl	-108(%rbp), %eax
	jge	.L243
	movq	-40(%rbp), %rax
	leaq	1(%rax), %rdx
	movq	%rdx, -40(%rbp)
	movzbl	(%rax), %eax
	movzbl	%al, %eax
	negq	%rax
	movq	%rax, %rdx
	movq	-48(%rbp), %rax
	addq	%rdx, %rax
	movzbl	(%rax), %eax
	movzbl	%al, %eax
	addl	%eax, -4(%rbp)
	movl	-4(%rbp), %eax
	cmpl	-108(%rbp), %eax
	jge	.L243
	movq	-40(%rbp), %rax
	movzbl	(%rax), %eax
	movzbl	%al, %eax
	negq	%rax
	movq	%rax, %rdx
	movq	-48(%rbp), %rax
	addq	%rdx, %rax
	movzbl	(%rax), %eax
	movzbl	%al, %eax
	addl	%eax, -4(%rbp)
	movl	-4(%rbp), %eax
	cmpl	-108(%rbp), %eax
	jge	.L243
	movl	-112(%rbp), %eax
	cltq
	subq	$3, %rax
	addq	%rax, -40(%rbp)
	movq	-40(%rbp), %rax
	leaq	1(%rax), %rdx
	movq	%rdx, -40(%rbp)
	movzbl	(%rax), %eax
	movzbl	%al, %eax
	negq	%rax
	movq	%rax, %rdx
	movq	-48(%rbp), %rax
	addq	%rdx, %rax
	movzbl	(%rax), %eax
	movzbl	%al, %eax
	addl	%eax, -4(%rbp)
	movl	-4(%rbp), %eax
	cmpl	-108(%rbp), %eax
	jge	.L243
	movq	-40(%rbp), %rax
	leaq	1(%rax), %rdx
	movq	%rdx, -40(%rbp)
	movzbl	(%rax), %eax
	movzbl	%al, %eax
	negq	%rax
	movq	%rax, %rdx
	movq	-48(%rbp), %rax
	addq	%rdx, %rax
	movzbl	(%rax), %eax
	movzbl	%al, %eax
	addl	%eax, -4(%rbp)
	movl	-4(%rbp), %eax
	cmpl	-108(%rbp), %eax
	jge	.L243
	movq	-40(%rbp), %rax
	movzbl	(%rax), %eax
	movzbl	%al, %eax
	negq	%rax
	movq	%rax, %rdx
	movq	-48(%rbp), %rax
	addq	%rdx, %rax
	movzbl	(%rax), %eax
	movzbl	%al, %eax
	addl	%eax, -4(%rbp)
	movl	-4(%rbp), %eax
	cmpl	-108(%rbp), %eax
	jge	.L243
	movl	$0, -52(%rbp)
	movl	$0, -56(%rbp)
	movl	-12(%rbp), %eax
	subl	$3, %eax
	imull	-112(%rbp), %eax
	movslq	%eax, %rdx
	movl	-16(%rbp), %eax
	cltq
	addq	%rdx, %rax
	leaq	-1(%rax), %rdx
	movq	-88(%rbp), %rax
	addq	%rdx, %rax
	movq	%rax, -40(%rbp)
	movq	-40(%rbp), %rax
	leaq	1(%rax), %rdx
	movq	%rdx, -40(%rbp)
	movzbl	(%rax), %eax
	movzbl	%al, %eax
	negq	%rax
	movq	%rax, %rdx
	movq	-48(%rbp), %rax
	addq	%rdx, %rax
	movzbl	(%rax), %eax
	movb	%al, -57(%rbp)
	movzbl	-57(%rbp), %eax
	subl	%eax, -52(%rbp)
	movzbl	-57(%rbp), %eax
	movl	%eax, %edx
	sall	$2, %eax
	subl	%eax, %edx
	movl	%edx, %eax
	addl	%eax, -56(%rbp)
	movq	-40(%rbp), %rax
	leaq	1(%rax), %rdx
	movq	%rdx, -40(%rbp)
	movzbl	(%rax), %eax
	movzbl	%al, %eax
	negq	%rax
	movq	%rax, %rdx
	movq	-48(%rbp), %rax
	addq	%rdx, %rax
	movzbl	(%rax), %eax
	movb	%al, -57(%rbp)
	movzbl	-57(%rbp), %eax
	movl	%eax, %edx
	sall	$2, %eax
	subl	%eax, %edx
	movl	%edx, %eax
	addl	%eax, -56(%rbp)
	movq	-40(%rbp), %rax
	movzbl	(%rax), %eax
	movzbl	%al, %eax
	negq	%rax
	movq	%rax, %rdx
	movq	-48(%rbp), %rax
	addq	%rdx, %rax
	movzbl	(%rax), %eax
	movb	%al, -57(%rbp)
	movzbl	-57(%rbp), %eax
	addl	%eax, -52(%rbp)
	movzbl	-57(%rbp), %eax
	movl	%eax, %edx
	sall	$2, %eax
	subl	%eax, %edx
	movl	%edx, %eax
	addl	%eax, -56(%rbp)
	movl	-112(%rbp), %eax
	cltq
	subq	$3, %rax
	addq	%rax, -40(%rbp)
	movq	-40(%rbp), %rax
	leaq	1(%rax), %rdx
	movq	%rdx, -40(%rbp)
	movzbl	(%rax), %eax
	movzbl	%al, %eax
	negq	%rax
	movq	%rax, %rdx
	movq	-48(%rbp), %rax
	addq	%rdx, %rax
	movzbl	(%rax), %eax
	movb	%al, -57(%rbp)
	movzbl	-57(%rbp), %eax
	addl	%eax, %eax
	subl	%eax, -52(%rbp)
	movzbl	-57(%rbp), %eax
	addl	%eax, %eax
	subl	%eax, -56(%rbp)
	movq	-40(%rbp), %rax
	leaq	1(%rax), %rdx
	movq	%rdx, -40(%rbp)
	movzbl	(%rax), %eax
	movzbl	%al, %eax
	negq	%rax
	movq	%rax, %rdx
	movq	-48(%rbp), %rax
	addq	%rdx, %rax
	movzbl	(%rax), %eax
	movb	%al, -57(%rbp)
	movzbl	-57(%rbp), %eax
	subl	%eax, -52(%rbp)
	movzbl	-57(%rbp), %eax
	addl	%eax, %eax
	subl	%eax, -56(%rbp)
	movq	-40(%rbp), %rax
	leaq	1(%rax), %rdx
	movq	%rdx, -40(%rbp)
	movzbl	(%rax), %eax
	movzbl	%al, %eax
	negq	%rax
	movq	%rax, %rdx
	movq	-48(%rbp), %rax
	addq	%rdx, %rax
	movzbl	(%rax), %eax
	movb	%al, -57(%rbp)
	movzbl	-57(%rbp), %eax
	addl	%eax, %eax
	subl	%eax, -56(%rbp)
	movq	-40(%rbp), %rax
	leaq	1(%rax), %rdx
	movq	%rdx, -40(%rbp)
	movzbl	(%rax), %eax
	movzbl	%al, %eax
	negq	%rax
	movq	%rax, %rdx
	movq	-48(%rbp), %rax
	addq	%rdx, %rax
	movzbl	(%rax), %eax
	movb	%al, -57(%rbp)
	movzbl	-57(%rbp), %eax
	addl	%eax, -52(%rbp)
	movzbl	-57(%rbp), %eax
	addl	%eax, %eax
	subl	%eax, -56(%rbp)
	movq	-40(%rbp), %rax
	movzbl	(%rax), %eax
	movzbl	%al, %eax
	negq	%rax
	movq	%rax, %rdx
	movq	-48(%rbp), %rax
	addq	%rdx, %rax
	movzbl	(%rax), %eax
	movb	%al, -57(%rbp)
	movzbl	-57(%rbp), %eax
	addl	%eax, %eax
	addl	%eax, -52(%rbp)
	movzbl	-57(%rbp), %eax
	addl	%eax, %eax
	subl	%eax, -56(%rbp)
	movl	-112(%rbp), %eax
	cltq
	subq	$5, %rax
	addq	%rax, -40(%rbp)
	movq	-40(%rbp), %rax
	leaq	1(%rax), %rdx
	movq	%rdx, -40(%rbp)
	movzbl	(%rax), %eax
	movzbl	%al, %eax
	negq	%rax
	movq	%rax, %rdx
	movq	-48(%rbp), %rax
	addq	%rdx, %rax
	movzbl	(%rax), %eax
	movb	%al, -57(%rbp)
	movzbl	-57(%rbp), %eax
	movl	%eax, %edx
	sall	$2, %eax
	subl	%eax, %edx
	movl	%edx, %eax
	addl	%eax, -52(%rbp)
	movzbl	-57(%rbp), %eax
	subl	%eax, -56(%rbp)
	movq	-40(%rbp), %rax
	leaq	1(%rax), %rdx
	movq	%rdx, -40(%rbp)
	movzbl	(%rax), %eax
	movzbl	%al, %eax
	negq	%rax
	movq	%rax, %rdx
	movq	-48(%rbp), %rax
	addq	%rdx, %rax
	movzbl	(%rax), %eax
	movb	%al, -57(%rbp)
	movzbl	-57(%rbp), %eax
	addl	%eax, %eax
	subl	%eax, -52(%rbp)
	movzbl	-57(%rbp), %eax
	subl	%eax, -56(%rbp)
	movq	-40(%rbp), %rax
	leaq	1(%rax), %rdx
	movq	%rdx, -40(%rbp)
	movzbl	(%rax), %eax
	movzbl	%al, %eax
	negq	%rax
	movq	%rax, %rdx
	movq	-48(%rbp), %rax
	addq	%rdx, %rax
	movzbl	(%rax), %eax
	movb	%al, -57(%rbp)
	movzbl	-57(%rbp), %eax
	subl	%eax, -52(%rbp)
	movzbl	-57(%rbp), %eax
	subl	%eax, -56(%rbp)
	movq	-40(%rbp), %rax
	leaq	1(%rax), %rdx
	movq	%rdx, -40(%rbp)
	movzbl	(%rax), %eax
	movzbl	%al, %eax
	negq	%rax
	movq	%rax, %rdx
	movq	-48(%rbp), %rax
	addq	%rdx, %rax
	movzbl	(%rax), %eax
	movb	%al, -57(%rbp)
	movzbl	-57(%rbp), %eax
	subl	%eax, -56(%rbp)
	movq	-40(%rbp), %rax
	leaq	1(%rax), %rdx
	movq	%rdx, -40(%rbp)
	movzbl	(%rax), %eax
	movzbl	%al, %eax
	negq	%rax
	movq	%rax, %rdx
	movq	-48(%rbp), %rax
	addq	%rdx, %rax
	movzbl	(%rax), %eax
	movb	%al, -57(%rbp)
	movzbl	-57(%rbp), %eax
	addl	%eax, -52(%rbp)
	movzbl	-57(%rbp), %eax
	subl	%eax, -56(%rbp)
	movq	-40(%rbp), %rax
	leaq	1(%rax), %rdx
	movq	%rdx, -40(%rbp)
	movzbl	(%rax), %eax
	movzbl	%al, %eax
	negq	%rax
	movq	%rax, %rdx
	movq	-48(%rbp), %rax
	addq	%rdx, %rax
	movzbl	(%rax), %eax
	movb	%al, -57(%rbp)
	movzbl	-57(%rbp), %eax
	addl	%eax, %eax
	addl	%eax, -52(%rbp)
	movzbl	-57(%rbp), %eax
	subl	%eax, -56(%rbp)
	movq	-40(%rbp), %rax
	movzbl	(%rax), %eax
	movzbl	%al, %eax
	negq	%rax
	movq	%rax, %rdx
	movq	-48(%rbp), %rax
	addq	%rdx, %rax
	movzbl	(%rax), %eax
	movb	%al, -57(%rbp)
	movzbl	-57(%rbp), %edx
	movl	%edx, %eax
	addl	%eax, %eax
	addl	%edx, %eax
	addl	%eax, -52(%rbp)
	movzbl	-57(%rbp), %eax
	subl	%eax, -56(%rbp)
	movl	-112(%rbp), %eax
	cltq
	subq	$6, %rax
	addq	%rax, -40(%rbp)
	movq	-40(%rbp), %rax
	leaq	1(%rax), %rdx
	movq	%rdx, -40(%rbp)
	movzbl	(%rax), %eax
	movzbl	%al, %eax
	negq	%rax
	movq	%rax, %rdx
	movq	-48(%rbp), %rax
	addq	%rdx, %rax
	movzbl	(%rax), %eax
	movb	%al, -57(%rbp)
	movzbl	-57(%rbp), %eax
	movl	%eax, %edx
	sall	$2, %eax
	subl	%eax, %edx
	movl	%edx, %eax
	addl	%eax, -52(%rbp)
	movq	-40(%rbp), %rax
	leaq	1(%rax), %rdx
	movq	%rdx, -40(%rbp)
	movzbl	(%rax), %eax
	movzbl	%al, %eax
	negq	%rax
	movq	%rax, %rdx
	movq	-48(%rbp), %rax
	addq	%rdx, %rax
	movzbl	(%rax), %eax
	movb	%al, -57(%rbp)
	movzbl	-57(%rbp), %eax
	addl	%eax, %eax
	subl	%eax, -52(%rbp)
	movq	-40(%rbp), %rax
	movzbl	(%rax), %eax
	movzbl	%al, %eax
	negq	%rax
	movq	%rax, %rdx
	movq	-48(%rbp), %rax
	addq	%rdx, %rax
	movzbl	(%rax), %eax
	movb	%al, -57(%rbp)
	movzbl	-57(%rbp), %eax
	subl	%eax, -52(%rbp)
	addq	$2, -40(%rbp)
	movq	-40(%rbp), %rax
	leaq	1(%rax), %rdx
	movq	%rdx, -40(%rbp)
	movzbl	(%rax), %eax
	movzbl	%al, %eax
	negq	%rax
	movq	%rax, %rdx
	movq	-48(%rbp), %rax
	addq	%rdx, %rax
	movzbl	(%rax), %eax
	movb	%al, -57(%rbp)
	movzbl	-57(%rbp), %eax
	addl	%eax, -52(%rbp)
	movq	-40(%rbp), %rax
	leaq	1(%rax), %rdx
	movq	%rdx, -40(%rbp)
	movzbl	(%rax), %eax
	movzbl	%al, %eax
	negq	%rax
	movq	%rax, %rdx
	movq	-48(%rbp), %rax
	addq	%rdx, %rax
	movzbl	(%rax), %eax
	movb	%al, -57(%rbp)
	movzbl	-57(%rbp), %eax
	addl	%eax, %eax
	addl	%eax, -52(%rbp)
	movq	-40(%rbp), %rax
	movzbl	(%rax), %eax
	movzbl	%al, %eax
	negq	%rax
	movq	%rax, %rdx
	movq	-48(%rbp), %rax
	addq	%rdx, %rax
	movzbl	(%rax), %eax
	movb	%al, -57(%rbp)
	movzbl	-57(%rbp), %edx
	movl	%edx, %eax
	addl	%eax, %eax
	addl	%edx, %eax
	addl	%eax, -52(%rbp)
	movl	-112(%rbp), %eax
	cltq
	subq	$6, %rax
	addq	%rax, -40(%rbp)
	movq	-40(%rbp), %rax
	leaq	1(%rax), %rdx
	movq	%rdx, -40(%rbp)
	movzbl	(%rax), %eax
	movzbl	%al, %eax
	negq	%rax
	movq	%rax, %rdx
	movq	-48(%rbp), %rax
	addq	%rdx, %rax
	movzbl	(%rax), %eax
	movb	%al, -57(%rbp)
	movzbl	-57(%rbp), %eax
	movl	%eax, %edx
	sall	$2, %eax
	subl	%eax, %edx
	movl	%edx, %eax
	addl	%eax, -52(%rbp)
	movzbl	-57(%rbp), %eax
	addl	%eax, -56(%rbp)
	movq	-40(%rbp), %rax
	leaq	1(%rax), %rdx
	movq	%rdx, -40(%rbp)
	movzbl	(%rax), %eax
	movzbl	%al, %eax
	negq	%rax
	movq	%rax, %rdx
	movq	-48(%rbp), %rax
	addq	%rdx, %rax
	movzbl	(%rax), %eax
	movb	%al, -57(%rbp)
	movzbl	-57(%rbp), %eax
	addl	%eax, %eax
	subl	%eax, -52(%rbp)
	movzbl	-57(%rbp), %eax
	addl	%eax, -56(%rbp)
	movq	-40(%rbp), %rax
	leaq	1(%rax), %rdx
	movq	%rdx, -40(%rbp)
	movzbl	(%rax), %eax
	movzbl	%al, %eax
	negq	%rax
	movq	%rax, %rdx
	movq	-48(%rbp), %rax
	addq	%rdx, %rax
	movzbl	(%rax), %eax
	movb	%al, -57(%rbp)
	movzbl	-57(%rbp), %eax
	subl	%eax, -52(%rbp)
	movzbl	-57(%rbp), %eax
	addl	%eax, -56(%rbp)
	movq	-40(%rbp), %rax
	leaq	1(%rax), %rdx
	movq	%rdx, -40(%rbp)
	movzbl	(%rax), %eax
	movzbl	%al, %eax
	negq	%rax
	movq	%rax, %rdx
	movq	-48(%rbp), %rax
	addq	%rdx, %rax
	movzbl	(%rax), %eax
	movb	%al, -57(%rbp)
	movzbl	-57(%rbp), %eax
	addl	%eax, -56(%rbp)
	movq	-40(%rbp), %rax
	leaq	1(%rax), %rdx
	movq	%rdx, -40(%rbp)
	movzbl	(%rax), %eax
	movzbl	%al, %eax
	negq	%rax
	movq	%rax, %rdx
	movq	-48(%rbp), %rax
	addq	%rdx, %rax
	movzbl	(%rax), %eax
	movb	%al, -57(%rbp)
	movzbl	-57(%rbp), %eax
	addl	%eax, -52(%rbp)
	movzbl	-57(%rbp), %eax
	addl	%eax, -56(%rbp)
	movq	-40(%rbp), %rax
	leaq	1(%rax), %rdx
	movq	%rdx, -40(%rbp)
	movzbl	(%rax), %eax
	movzbl	%al, %eax
	negq	%rax
	movq	%rax, %rdx
	movq	-48(%rbp), %rax
	addq	%rdx, %rax
	movzbl	(%rax), %eax
	movb	%al, -57(%rbp)
	movzbl	-57(%rbp), %eax
	addl	%eax, %eax
	addl	%eax, -52(%rbp)
	movzbl	-57(%rbp), %eax
	addl	%eax, -56(%rbp)
	movq	-40(%rbp), %rax
	movzbl	(%rax), %eax
	movzbl	%al, %eax
	negq	%rax
	movq	%rax, %rdx
	movq	-48(%rbp), %rax
	addq	%rdx, %rax
	movzbl	(%rax), %eax
	movb	%al, -57(%rbp)
	movzbl	-57(%rbp), %edx
	movl	%edx, %eax
	addl	%eax, %eax
	addl	%edx, %eax
	addl	%eax, -52(%rbp)
	movzbl	-57(%rbp), %eax
	addl	%eax, -56(%rbp)
	movl	-112(%rbp), %eax
	cltq
	subq	$5, %rax
	addq	%rax, -40(%rbp)
	movq	-40(%rbp), %rax
	leaq	1(%rax), %rdx
	movq	%rdx, -40(%rbp)
	movzbl	(%rax), %eax
	movzbl	%al, %eax
	negq	%rax
	movq	%rax, %rdx
	movq	-48(%rbp), %rax
	addq	%rdx, %rax
	movzbl	(%rax), %eax
	movb	%al, -57(%rbp)
	movzbl	-57(%rbp), %eax
	addl	%eax, %eax
	subl	%eax, -52(%rbp)
	movzbl	-57(%rbp), %eax
	addl	%eax, %eax
	addl	%eax, -56(%rbp)
	movq	-40(%rbp), %rax
	leaq	1(%rax), %rdx
	movq	%rdx, -40(%rbp)
	movzbl	(%rax), %eax
	movzbl	%al, %eax
	negq	%rax
	movq	%rax, %rdx
	movq	-48(%rbp), %rax
	addq	%rdx, %rax
	movzbl	(%rax), %eax
	movb	%al, -57(%rbp)
	movzbl	-57(%rbp), %eax
	subl	%eax, -52(%rbp)
	movzbl	-57(%rbp), %eax
	addl	%eax, %eax
	addl	%eax, -56(%rbp)
	movq	-40(%rbp), %rax
	leaq	1(%rax), %rdx
	movq	%rdx, -40(%rbp)
	movzbl	(%rax), %eax
	movzbl	%al, %eax
	negq	%rax
	movq	%rax, %rdx
	movq	-48(%rbp), %rax
	addq	%rdx, %rax
	movzbl	(%rax), %eax
	movb	%al, -57(%rbp)
	movzbl	-57(%rbp), %eax
	addl	%eax, %eax
	addl	%eax, -56(%rbp)
	movq	-40(%rbp), %rax
	leaq	1(%rax), %rdx
	movq	%rdx, -40(%rbp)
	movzbl	(%rax), %eax
	movzbl	%al, %eax
	negq	%rax
	movq	%rax, %rdx
	movq	-48(%rbp), %rax
	addq	%rdx, %rax
	movzbl	(%rax), %eax
	movb	%al, -57(%rbp)
	movzbl	-57(%rbp), %eax
	addl	%eax, -52(%rbp)
	movzbl	-57(%rbp), %eax
	addl	%eax, %eax
	addl	%eax, -56(%rbp)
	movq	-40(%rbp), %rax
	movzbl	(%rax), %eax
	movzbl	%al, %eax
	negq	%rax
	movq	%rax, %rdx
	movq	-48(%rbp), %rax
	addq	%rdx, %rax
	movzbl	(%rax), %eax
	movb	%al, -57(%rbp)
	movzbl	-57(%rbp), %eax
	addl	%eax, %eax
	addl	%eax, -52(%rbp)
	movzbl	-57(%rbp), %eax
	addl	%eax, %eax
	addl	%eax, -56(%rbp)
	movl	-112(%rbp), %eax
	cltq
	subq	$3, %rax
	addq	%rax, -40(%rbp)
	movq	-40(%rbp), %rax
	leaq	1(%rax), %rdx
	movq	%rdx, -40(%rbp)
	movzbl	(%rax), %eax
	movzbl	%al, %eax
	negq	%rax
	movq	%rax, %rdx
	movq	-48(%rbp), %rax
	addq	%rdx, %rax
	movzbl	(%rax), %eax
	movb	%al, -57(%rbp)
	movzbl	-57(%rbp), %eax
	subl	%eax, -52(%rbp)
	movzbl	-57(%rbp), %edx
	movl	%edx, %eax
	addl	%eax, %eax
	addl	%edx, %eax
	addl	%eax, -56(%rbp)
	movq	-40(%rbp), %rax
	leaq	1(%rax), %rdx
	movq	%rdx, -40(%rbp)
	movzbl	(%rax), %eax
	movzbl	%al, %eax
	negq	%rax
	movq	%rax, %rdx
	movq	-48(%rbp), %rax
	addq	%rdx, %rax
	movzbl	(%rax), %eax
	movb	%al, -57(%rbp)
	movzbl	-57(%rbp), %edx
	movl	%edx, %eax
	addl	%eax, %eax
	addl	%edx, %eax
	addl	%eax, -56(%rbp)
	movq	-40(%rbp), %rax
	movzbl	(%rax), %eax
	movzbl	%al, %eax
	negq	%rax
	movq	%rax, %rdx
	movq	-48(%rbp), %rax
	addq	%rdx, %rax
	movzbl	(%rax), %eax
	movb	%al, -57(%rbp)
	movzbl	-57(%rbp), %eax
	addl	%eax, -52(%rbp)
	movzbl	-57(%rbp), %edx
	movl	%edx, %eax
	addl	%eax, %eax
	addl	%edx, %eax
	addl	%eax, -56(%rbp)
	movl	-52(%rbp), %eax
	imull	-52(%rbp), %eax
	movl	%eax, -64(%rbp)
	movl	-56(%rbp), %eax
	imull	-56(%rbp), %eax
	movl	%eax, -68(%rbp)
	movl	-64(%rbp), %edx
	movl	-68(%rbp), %eax
	addl	%edx, %eax
	movl	%eax, -8(%rbp)
	movl	-4(%rbp), %eax
	imull	-4(%rbp), %eax
	movl	%eax, %edx
	shrl	$31, %edx
	addl	%edx, %eax
	sarl	%eax
	cmpl	%eax, -8(%rbp)
	jle	.L243
	movl	-68(%rbp), %eax
	cmpl	-64(%rbp), %eax
	jge	.L244
	cvtsi2ss	-56(%rbp), %xmm0
	movl	-52(%rbp), %eax
	cltd
	movl	%edx, %eax
	xorl	-52(%rbp), %eax
	subl	%edx, %eax
	cvtsi2ss	%eax, %xmm1
	divss	%xmm1, %xmm0
	movss	%xmm0, -72(%rbp)
	cmpl	$0, -52(%rbp)
	jns	.L245
	movl	$-1, %eax
	jmp	.L246
.L245:
	movl	$1, %eax
.L246:
	movl	%eax, -8(%rbp)
	pxor	%xmm0, %xmm0
	comiss	-72(%rbp), %xmm0
	jbe	.L281
	cvtss2sd	-72(%rbp), %xmm0
	movsd	.LC40(%rip), %xmm1
	subsd	%xmm1, %xmm0
	cvttsd2si	%xmm0, %eax
	jmp	.L249
.L281:
	cvtss2sd	-72(%rbp), %xmm1
	movsd	.LC40(%rip), %xmm0
	addsd	%xmm1, %xmm0
	cvttsd2si	%xmm0, %eax
.L249:
	movl	-12(%rbp), %edx
	addl	%edx, %eax
	imull	-112(%rbp), %eax
	movl	%eax, %edx
	movl	-16(%rbp), %eax
	addl	%eax, %edx
	movl	-8(%rbp), %eax
	addl	%edx, %eax
	movslq	%eax, %rdx
	movq	-88(%rbp), %rax
	addq	%rdx, %rax
	movzbl	(%rax), %eax
	movzbl	%al, %eax
	negq	%rax
	movq	%rax, %rdx
	movq	-48(%rbp), %rax
	addq	%rdx, %rax
	movzbl	(%rax), %eax
	movzbl	%al, %edx
	movss	-72(%rbp), %xmm0
	movaps	%xmm0, %xmm1
	addss	%xmm0, %xmm1
	pxor	%xmm0, %xmm0
	comiss	%xmm1, %xmm0
	jbe	.L282
	movss	-72(%rbp), %xmm0
	addss	%xmm0, %xmm0
	cvtss2sd	%xmm0, %xmm0
	movsd	.LC40(%rip), %xmm1
	subsd	%xmm1, %xmm0
	cvttsd2si	%xmm0, %eax
	jmp	.L252
.L282:
	movss	-72(%rbp), %xmm0
	addss	%xmm0, %xmm0
	cvtss2sd	%xmm0, %xmm1
	movsd	.LC40(%rip), %xmm0
	addsd	%xmm1, %xmm0
	cvttsd2si	%xmm0, %eax
.L252:
	movl	-12(%rbp), %ecx
	addl	%ecx, %eax
	imull	-112(%rbp), %eax
	movl	%eax, %ecx
	movl	-16(%rbp), %eax
	addl	%eax, %ecx
	movl	-8(%rbp), %eax
	addl	%eax, %eax
	addl	%ecx, %eax
	movslq	%eax, %rcx
	movq	-88(%rbp), %rax
	addq	%rcx, %rax
	movzbl	(%rax), %eax
	movzbl	%al, %eax
	negq	%rax
	movq	%rax, %rcx
	movq	-48(%rbp), %rax
	addq	%rcx, %rax
	movzbl	(%rax), %eax
	movzbl	%al, %eax
	leal	(%rdx,%rax), %ecx
	movss	-72(%rbp), %xmm1
	movss	.LC41(%rip), %xmm0
	mulss	%xmm0, %xmm1
	pxor	%xmm0, %xmm0
	comiss	%xmm1, %xmm0
	jbe	.L283
	movss	-72(%rbp), %xmm1
	movss	.LC41(%rip), %xmm0
	mulss	%xmm1, %xmm0
	cvtss2sd	%xmm0, %xmm0
	movsd	.LC40(%rip), %xmm1
	subsd	%xmm1, %xmm0
	cvttsd2si	%xmm0, %eax
	jmp	.L255
.L283:
	movss	-72(%rbp), %xmm1
	movss	.LC41(%rip), %xmm0
	mulss	%xmm1, %xmm0
	cvtss2sd	%xmm0, %xmm1
	movsd	.LC40(%rip), %xmm0
	addsd	%xmm1, %xmm0
	cvttsd2si	%xmm0, %eax
.L255:
	movl	-12(%rbp), %edx
	addl	%edx, %eax
	imull	-112(%rbp), %eax
	movl	%eax, %edx
	movl	-16(%rbp), %eax
	leal	(%rdx,%rax), %esi
	movl	-8(%rbp), %edx
	movl	%edx, %eax
	addl	%eax, %eax
	addl	%edx, %eax
	addl	%esi, %eax
	movslq	%eax, %rdx
	movq	-88(%rbp), %rax
	addq	%rdx, %rax
	movzbl	(%rax), %eax
	movzbl	%al, %eax
	negq	%rax
	movq	%rax, %rdx
	movq	-48(%rbp), %rax
	addq	%rdx, %rax
	movzbl	(%rax), %eax
	movzbl	%al, %eax
	addl	%ecx, %eax
	movl	%eax, -8(%rbp)
	jmp	.L256
.L244:
	cvtsi2ss	-52(%rbp), %xmm0
	movl	-56(%rbp), %eax
	cltd
	movl	%edx, %eax
	xorl	-56(%rbp), %eax
	subl	%edx, %eax
	cvtsi2ss	%eax, %xmm1
	divss	%xmm1, %xmm0
	movss	%xmm0, -72(%rbp)
	cmpl	$0, -56(%rbp)
	jns	.L257
	movl	$-1, %eax
	jmp	.L258
.L257:
	movl	$1, %eax
.L258:
	movl	%eax, -8(%rbp)
	movl	-12(%rbp), %edx
	movl	-8(%rbp), %eax
	addl	%edx, %eax
	imull	-112(%rbp), %eax
	movl	%eax, %edx
	movl	-16(%rbp), %eax
	addl	%eax, %edx
	pxor	%xmm0, %xmm0
	comiss	-72(%rbp), %xmm0
	jbe	.L284
	cvtss2sd	-72(%rbp), %xmm0
	movsd	.LC40(%rip), %xmm1
	subsd	%xmm1, %xmm0
	cvttsd2si	%xmm0, %eax
	jmp	.L261
.L284:
	cvtss2sd	-72(%rbp), %xmm1
	movsd	.LC40(%rip), %xmm0
	addsd	%xmm1, %xmm0
	cvttsd2si	%xmm0, %eax
.L261:
	addl	%edx, %eax
	movslq	%eax, %rdx
	movq	-88(%rbp), %rax
	addq	%rdx, %rax
	movzbl	(%rax), %eax
	movzbl	%al, %eax
	negq	%rax
	movq	%rax, %rdx
	movq	-48(%rbp), %rax
	addq	%rdx, %rax
	movzbl	(%rax), %eax
	movzbl	%al, %edx
	movl	-8(%rbp), %eax
	leal	(%rax,%rax), %ecx
	movl	-12(%rbp), %eax
	addl	%ecx, %eax
	imull	-112(%rbp), %eax
	movl	%eax, %ecx
	movl	-16(%rbp), %eax
	addl	%eax, %ecx
	movss	-72(%rbp), %xmm0
	movaps	%xmm0, %xmm1
	addss	%xmm0, %xmm1
	pxor	%xmm0, %xmm0
	comiss	%xmm1, %xmm0
	jbe	.L285
	movss	-72(%rbp), %xmm0
	addss	%xmm0, %xmm0
	cvtss2sd	%xmm0, %xmm0
	movsd	.LC40(%rip), %xmm1
	subsd	%xmm1, %xmm0
	cvttsd2si	%xmm0, %eax
	jmp	.L264
.L285:
	movss	-72(%rbp), %xmm0
	addss	%xmm0, %xmm0
	cvtss2sd	%xmm0, %xmm1
	movsd	.LC40(%rip), %xmm0
	addsd	%xmm1, %xmm0
	cvttsd2si	%xmm0, %eax
.L264:
	addl	%ecx, %eax
	movslq	%eax, %rcx
	movq	-88(%rbp), %rax
	addq	%rcx, %rax
	movzbl	(%rax), %eax
	movzbl	%al, %eax
	negq	%rax
	movq	%rax, %rcx
	movq	-48(%rbp), %rax
	addq	%rcx, %rax
	movzbl	(%rax), %eax
	movzbl	%al, %eax
	leal	(%rdx,%rax), %ecx
	movl	-8(%rbp), %edx
	movl	%edx, %eax
	addl	%eax, %eax
	addl	%eax, %edx
	movl	-12(%rbp), %eax
	addl	%edx, %eax
	imull	-112(%rbp), %eax
	movl	%eax, %edx
	movl	-16(%rbp), %eax
	addl	%eax, %edx
	movss	-72(%rbp), %xmm1
	movss	.LC41(%rip), %xmm0
	mulss	%xmm0, %xmm1
	pxor	%xmm0, %xmm0
	comiss	%xmm1, %xmm0
	jbe	.L286
	movss	-72(%rbp), %xmm1
	movss	.LC41(%rip), %xmm0
	mulss	%xmm1, %xmm0
	cvtss2sd	%xmm0, %xmm0
	movsd	.LC40(%rip), %xmm1
	subsd	%xmm1, %xmm0
	cvttsd2si	%xmm0, %eax
	jmp	.L267
.L286:
	movss	-72(%rbp), %xmm1
	movss	.LC41(%rip), %xmm0
	mulss	%xmm1, %xmm0
	cvtss2sd	%xmm0, %xmm1
	movsd	.LC40(%rip), %xmm0
	addsd	%xmm1, %xmm0
	cvttsd2si	%xmm0, %eax
.L267:
	addl	%edx, %eax
	movslq	%eax, %rdx
	movq	-88(%rbp), %rax
	addq	%rdx, %rax
	movzbl	(%rax), %eax
	movzbl	%al, %eax
	negq	%rax
	movq	%rax, %rdx
	movq	-48(%rbp), %rax
	addq	%rdx, %rax
	movzbl	(%rax), %eax
	movzbl	%al, %eax
	addl	%ecx, %eax
	movl	%eax, -8(%rbp)
.L256:
	cmpl	$290, -8(%rbp)
	jle	.L243
	movl	-12(%rbp), %eax
	imull	-112(%rbp), %eax
	movl	%eax, %edx
	movl	-16(%rbp), %eax
	addl	%edx, %eax
	cltq
	leaq	0(,%rax,4), %rdx
	movq	-96(%rbp), %rax
	addq	%rax, %rdx
	movl	-108(%rbp), %eax
	subl	-4(%rbp), %eax
	movl	%eax, (%rdx)
	movl	-52(%rbp), %eax
	imull	$51, %eax, %eax
	movl	-12(%rbp), %edx
	movl	%edx, %ecx
	imull	-112(%rbp), %ecx
	movl	-16(%rbp), %edx
	addl	%ecx, %edx
	movslq	%edx, %rdx
	leaq	0(,%rdx,4), %rcx
	movq	-24(%rbp), %rdx
	addq	%rdx, %rcx
	cltd
	idivl	-4(%rbp)
	movl	%eax, (%rcx)
	movl	-56(%rbp), %eax
	imull	$51, %eax, %eax
	movl	-12(%rbp), %edx
	movl	%edx, %ecx
	imull	-112(%rbp), %ecx
	movl	-16(%rbp), %edx
	addl	%ecx, %edx
	movslq	%edx, %rdx
	leaq	0(,%rdx,4), %rcx
	movq	-32(%rbp), %rdx
	addq	%rdx, %rcx
	cltd
	idivl	-4(%rbp)
	movl	%eax, (%rcx)
.L243:
	addl	$1, -16(%rbp)
.L242:
	movl	-112(%rbp), %eax
	subl	$5, %eax
	cmpl	%eax, -16(%rbp)
	jl	.L268
	addl	$1, -12(%rbp)
.L241:
	movl	16(%rbp), %eax
	subl	$5, %eax
	cmpl	%eax, -12(%rbp)
	jl	.L269
	movl	$0, -4(%rbp)
	movl	$5, -12(%rbp)
	jmp	.L270
.L274:
	movl	$5, -16(%rbp)
	jmp	.L271
.L273:
	movl	-12(%rbp), %eax
	imull	-112(%rbp), %eax
	movl	%eax, %edx
	movl	-16(%rbp), %eax
	addl	%edx, %eax
	cltq
	leaq	0(,%rax,4), %rdx
	movq	-96(%rbp), %rax
	addq	%rdx, %rax
	movl	(%rax), %eax
	movl	%eax, -52(%rbp)
	cmpl	$0, -52(%rbp)
	jle	.L272
	movl	-12(%rbp), %eax
	subl	$3, %eax
	imull	-112(%rbp), %eax
	movl	%eax, %edx
	movl	-16(%rbp), %eax
	addl	%edx, %eax
	cltq
	salq	$2, %rax
	leaq	-12(%rax), %rdx
	movq	-96(%rbp), %rax
	addq	%rdx, %rax
	movl	(%rax), %eax
	cmpl	%eax, -52(%rbp)
	jle	.L272
	movl	-12(%rbp), %eax
	subl	$3, %eax
	imull	-112(%rbp), %eax
	movl	%eax, %edx
	movl	-16(%rbp), %eax
	addl	%edx, %eax
	cltq
	salq	$2, %rax
	leaq	-8(%rax), %rdx
	movq	-96(%rbp), %rax
	addq	%rdx, %rax
	movl	(%rax), %eax
	cmpl	%eax, -52(%rbp)
	jle	.L272
	movl	-12(%rbp), %eax
	subl	$3, %eax
	imull	-112(%rbp), %eax
	movl	%eax, %edx
	movl	-16(%rbp), %eax
	addl	%edx, %eax
	cltq
	salq	$2, %rax
	leaq	-4(%rax), %rdx
	movq	-96(%rbp), %rax
	addq	%rdx, %rax
	movl	(%rax), %eax
	cmpl	%eax, -52(%rbp)
	jle	.L272
	movl	-12(%rbp), %eax
	subl	$3, %eax
	imull	-112(%rbp), %eax
	movl	%eax, %edx
	movl	-16(%rbp), %eax
	addl	%edx, %eax
	cltq
	leaq	0(,%rax,4), %rdx
	movq	-96(%rbp), %rax
	addq	%rdx, %rax
	movl	(%rax), %eax
	cmpl	%eax, -52(%rbp)
	jle	.L272
	movl	-12(%rbp), %eax
	subl	$3, %eax
	imull	-112(%rbp), %eax
	movl	%eax, %edx
	movl	-16(%rbp), %eax
	addl	%edx, %eax
	cltq
	addq	$1, %rax
	leaq	0(,%rax,4), %rdx
	movq	-96(%rbp), %rax
	addq	%rdx, %rax
	movl	(%rax), %eax
	cmpl	%eax, -52(%rbp)
	jle	.L272
	movl	-12(%rbp), %eax
	subl	$3, %eax
	imull	-112(%rbp), %eax
	movl	%eax, %edx
	movl	-16(%rbp), %eax
	addl	%edx, %eax
	cltq
	addq	$2, %rax
	leaq	0(,%rax,4), %rdx
	movq	-96(%rbp), %rax
	addq	%rdx, %rax
	movl	(%rax), %eax
	cmpl	%eax, -52(%rbp)
	jle	.L272
	movl	-12(%rbp), %eax
	subl	$3, %eax
	imull	-112(%rbp), %eax
	movl	%eax, %edx
	movl	-16(%rbp), %eax
	addl	%edx, %eax
	cltq
	addq	$3, %rax
	leaq	0(,%rax,4), %rdx
	movq	-96(%rbp), %rax
	addq	%rdx, %rax
	movl	(%rax), %eax
	cmpl	%eax, -52(%rbp)
	jle	.L272
	movl	-12(%rbp), %eax
	subl	$2, %eax
	imull	-112(%rbp), %eax
	movl	%eax, %edx
	movl	-16(%rbp), %eax
	addl	%edx, %eax
	cltq
	salq	$2, %rax
	leaq	-12(%rax), %rdx
	movq	-96(%rbp), %rax
	addq	%rdx, %rax
	movl	(%rax), %eax
	cmpl	%eax, -52(%rbp)
	jle	.L272
	movl	-12(%rbp), %eax
	subl	$2, %eax
	imull	-112(%rbp), %eax
	movl	%eax, %edx
	movl	-16(%rbp), %eax
	addl	%edx, %eax
	cltq
	salq	$2, %rax
	leaq	-8(%rax), %rdx
	movq	-96(%rbp), %rax
	addq	%rdx, %rax
	movl	(%rax), %eax
	cmpl	%eax, -52(%rbp)
	jle	.L272
	movl	-12(%rbp), %eax
	subl	$2, %eax
	imull	-112(%rbp), %eax
	movl	%eax, %edx
	movl	-16(%rbp), %eax
	addl	%edx, %eax
	cltq
	salq	$2, %rax
	leaq	-4(%rax), %rdx
	movq	-96(%rbp), %rax
	addq	%rdx, %rax
	movl	(%rax), %eax
	cmpl	%eax, -52(%rbp)
	jle	.L272
	movl	-12(%rbp), %eax
	subl	$2, %eax
	imull	-112(%rbp), %eax
	movl	%eax, %edx
	movl	-16(%rbp), %eax
	addl	%edx, %eax
	cltq
	leaq	0(,%rax,4), %rdx
	movq	-96(%rbp), %rax
	addq	%rdx, %rax
	movl	(%rax), %eax
	cmpl	%eax, -52(%rbp)
	jle	.L272
	movl	-12(%rbp), %eax
	subl	$2, %eax
	imull	-112(%rbp), %eax
	movl	%eax, %edx
	movl	-16(%rbp), %eax
	addl	%edx, %eax
	cltq
	addq	$1, %rax
	leaq	0(,%rax,4), %rdx
	movq	-96(%rbp), %rax
	addq	%rdx, %rax
	movl	(%rax), %eax
	cmpl	%eax, -52(%rbp)
	jle	.L272
	movl	-12(%rbp), %eax
	subl	$2, %eax
	imull	-112(%rbp), %eax
	movl	%eax, %edx
	movl	-16(%rbp), %eax
	addl	%edx, %eax
	cltq
	addq	$2, %rax
	leaq	0(,%rax,4), %rdx
	movq	-96(%rbp), %rax
	addq	%rdx, %rax
	movl	(%rax), %eax
	cmpl	%eax, -52(%rbp)
	jle	.L272
	movl	-12(%rbp), %eax
	subl	$2, %eax
	imull	-112(%rbp), %eax
	movl	%eax, %edx
	movl	-16(%rbp), %eax
	addl	%edx, %eax
	cltq
	addq	$3, %rax
	leaq	0(,%rax,4), %rdx
	movq	-96(%rbp), %rax
	addq	%rdx, %rax
	movl	(%rax), %eax
	cmpl	%eax, -52(%rbp)
	jle	.L272
	movl	-12(%rbp), %eax
	subl	$1, %eax
	imull	-112(%rbp), %eax
	movl	%eax, %edx
	movl	-16(%rbp), %eax
	addl	%edx, %eax
	cltq
	salq	$2, %rax
	leaq	-12(%rax), %rdx
	movq	-96(%rbp), %rax
	addq	%rdx, %rax
	movl	(%rax), %eax
	cmpl	%eax, -52(%rbp)
	jle	.L272
	movl	-12(%rbp), %eax
	subl	$1, %eax
	imull	-112(%rbp), %eax
	movl	%eax, %edx
	movl	-16(%rbp), %eax
	addl	%edx, %eax
	cltq
	salq	$2, %rax
	leaq	-8(%rax), %rdx
	movq	-96(%rbp), %rax
	addq	%rdx, %rax
	movl	(%rax), %eax
	cmpl	%eax, -52(%rbp)
	jle	.L272
	movl	-12(%rbp), %eax
	subl	$1, %eax
	imull	-112(%rbp), %eax
	movl	%eax, %edx
	movl	-16(%rbp), %eax
	addl	%edx, %eax
	cltq
	salq	$2, %rax
	leaq	-4(%rax), %rdx
	movq	-96(%rbp), %rax
	addq	%rdx, %rax
	movl	(%rax), %eax
	cmpl	%eax, -52(%rbp)
	jle	.L272
	movl	-12(%rbp), %eax
	subl	$1, %eax
	imull	-112(%rbp), %eax
	movl	%eax, %edx
	movl	-16(%rbp), %eax
	addl	%edx, %eax
	cltq
	leaq	0(,%rax,4), %rdx
	movq	-96(%rbp), %rax
	addq	%rdx, %rax
	movl	(%rax), %eax
	cmpl	%eax, -52(%rbp)
	jle	.L272
	movl	-12(%rbp), %eax
	subl	$1, %eax
	imull	-112(%rbp), %eax
	movl	%eax, %edx
	movl	-16(%rbp), %eax
	addl	%edx, %eax
	cltq
	addq	$1, %rax
	leaq	0(,%rax,4), %rdx
	movq	-96(%rbp), %rax
	addq	%rdx, %rax
	movl	(%rax), %eax
	cmpl	%eax, -52(%rbp)
	jle	.L272
	movl	-12(%rbp), %eax
	subl	$1, %eax
	imull	-112(%rbp), %eax
	movl	%eax, %edx
	movl	-16(%rbp), %eax
	addl	%edx, %eax
	cltq
	addq	$2, %rax
	leaq	0(,%rax,4), %rdx
	movq	-96(%rbp), %rax
	addq	%rdx, %rax
	movl	(%rax), %eax
	cmpl	%eax, -52(%rbp)
	jle	.L272
	movl	-12(%rbp), %eax
	subl	$1, %eax
	imull	-112(%rbp), %eax
	movl	%eax, %edx
	movl	-16(%rbp), %eax
	addl	%edx, %eax
	cltq
	addq	$3, %rax
	leaq	0(,%rax,4), %rdx
	movq	-96(%rbp), %rax
	addq	%rdx, %rax
	movl	(%rax), %eax
	cmpl	%eax, -52(%rbp)
	jle	.L272
	movl	-12(%rbp), %eax
	imull	-112(%rbp), %eax
	movl	%eax, %edx
	movl	-16(%rbp), %eax
	addl	%edx, %eax
	cltq
	salq	$2, %rax
	leaq	-12(%rax), %rdx
	movq	-96(%rbp), %rax
	addq	%rdx, %rax
	movl	(%rax), %eax
	cmpl	%eax, -52(%rbp)
	jle	.L272
	movl	-12(%rbp), %eax
	imull	-112(%rbp), %eax
	movl	%eax, %edx
	movl	-16(%rbp), %eax
	addl	%edx, %eax
	cltq
	salq	$2, %rax
	leaq	-8(%rax), %rdx
	movq	-96(%rbp), %rax
	addq	%rdx, %rax
	movl	(%rax), %eax
	cmpl	%eax, -52(%rbp)
	jle	.L272
	movl	-12(%rbp), %eax
	imull	-112(%rbp), %eax
	movl	%eax, %edx
	movl	-16(%rbp), %eax
	addl	%edx, %eax
	cltq
	salq	$2, %rax
	leaq	-4(%rax), %rdx
	movq	-96(%rbp), %rax
	addq	%rdx, %rax
	movl	(%rax), %eax
	cmpl	%eax, -52(%rbp)
	jle	.L272
	movl	-12(%rbp), %eax
	imull	-112(%rbp), %eax
	movl	%eax, %edx
	movl	-16(%rbp), %eax
	addl	%edx, %eax
	cltq
	addq	$1, %rax
	leaq	0(,%rax,4), %rdx
	movq	-96(%rbp), %rax
	addq	%rdx, %rax
	movl	(%rax), %eax
	cmpl	%eax, -52(%rbp)
	jl	.L272
	movl	-12(%rbp), %eax
	imull	-112(%rbp), %eax
	movl	%eax, %edx
	movl	-16(%rbp), %eax
	addl	%edx, %eax
	cltq
	addq	$2, %rax
	leaq	0(,%rax,4), %rdx
	movq	-96(%rbp), %rax
	addq	%rdx, %rax
	movl	(%rax), %eax
	cmpl	%eax, -52(%rbp)
	jl	.L272
	movl	-12(%rbp), %eax
	imull	-112(%rbp), %eax
	movl	%eax, %edx
	movl	-16(%rbp), %eax
	addl	%edx, %eax
	cltq
	addq	$3, %rax
	leaq	0(,%rax,4), %rdx
	movq	-96(%rbp), %rax
	addq	%rdx, %rax
	movl	(%rax), %eax
	cmpl	%eax, -52(%rbp)
	jl	.L272
	movl	-12(%rbp), %eax
	addl	$1, %eax
	imull	-112(%rbp), %eax
	movl	%eax, %edx
	movl	-16(%rbp), %eax
	addl	%edx, %eax
	cltq
	salq	$2, %rax
	leaq	-12(%rax), %rdx
	movq	-96(%rbp), %rax
	addq	%rdx, %rax
	movl	(%rax), %eax
	cmpl	%eax, -52(%rbp)
	jl	.L272
	movl	-12(%rbp), %eax
	addl	$1, %eax
	imull	-112(%rbp), %eax
	movl	%eax, %edx
	movl	-16(%rbp), %eax
	addl	%edx, %eax
	cltq
	salq	$2, %rax
	leaq	-8(%rax), %rdx
	movq	-96(%rbp), %rax
	addq	%rdx, %rax
	movl	(%rax), %eax
	cmpl	%eax, -52(%rbp)
	jl	.L272
	movl	-12(%rbp), %eax
	addl	$1, %eax
	imull	-112(%rbp), %eax
	movl	%eax, %edx
	movl	-16(%rbp), %eax
	addl	%edx, %eax
	cltq
	salq	$2, %rax
	leaq	-4(%rax), %rdx
	movq	-96(%rbp), %rax
	addq	%rdx, %rax
	movl	(%rax), %eax
	cmpl	%eax, -52(%rbp)
	jl	.L272
	movl	-12(%rbp), %eax
	addl	$1, %eax
	imull	-112(%rbp), %eax
	movl	%eax, %edx
	movl	-16(%rbp), %eax
	addl	%edx, %eax
	cltq
	leaq	0(,%rax,4), %rdx
	movq	-96(%rbp), %rax
	addq	%rdx, %rax
	movl	(%rax), %eax
	cmpl	%eax, -52(%rbp)
	jl	.L272
	movl	-12(%rbp), %eax
	addl	$1, %eax
	imull	-112(%rbp), %eax
	movl	%eax, %edx
	movl	-16(%rbp), %eax
	addl	%edx, %eax
	cltq
	addq	$1, %rax
	leaq	0(,%rax,4), %rdx
	movq	-96(%rbp), %rax
	addq	%rdx, %rax
	movl	(%rax), %eax
	cmpl	%eax, -52(%rbp)
	jl	.L272
	movl	-12(%rbp), %eax
	addl	$1, %eax
	imull	-112(%rbp), %eax
	movl	%eax, %edx
	movl	-16(%rbp), %eax
	addl	%edx, %eax
	cltq
	addq	$2, %rax
	leaq	0(,%rax,4), %rdx
	movq	-96(%rbp), %rax
	addq	%rdx, %rax
	movl	(%rax), %eax
	cmpl	%eax, -52(%rbp)
	jl	.L272
	movl	-12(%rbp), %eax
	addl	$1, %eax
	imull	-112(%rbp), %eax
	movl	%eax, %edx
	movl	-16(%rbp), %eax
	addl	%edx, %eax
	cltq
	addq	$3, %rax
	leaq	0(,%rax,4), %rdx
	movq	-96(%rbp), %rax
	addq	%rdx, %rax
	movl	(%rax), %eax
	cmpl	%eax, -52(%rbp)
	jl	.L272
	movl	-12(%rbp), %eax
	addl	$2, %eax
	imull	-112(%rbp), %eax
	movl	%eax, %edx
	movl	-16(%rbp), %eax
	addl	%edx, %eax
	cltq
	salq	$2, %rax
	leaq	-12(%rax), %rdx
	movq	-96(%rbp), %rax
	addq	%rdx, %rax
	movl	(%rax), %eax
	cmpl	%eax, -52(%rbp)
	jl	.L272
	movl	-12(%rbp), %eax
	addl	$2, %eax
	imull	-112(%rbp), %eax
	movl	%eax, %edx
	movl	-16(%rbp), %eax
	addl	%edx, %eax
	cltq
	salq	$2, %rax
	leaq	-8(%rax), %rdx
	movq	-96(%rbp), %rax
	addq	%rdx, %rax
	movl	(%rax), %eax
	cmpl	%eax, -52(%rbp)
	jl	.L272
	movl	-12(%rbp), %eax
	addl	$2, %eax
	imull	-112(%rbp), %eax
	movl	%eax, %edx
	movl	-16(%rbp), %eax
	addl	%edx, %eax
	cltq
	salq	$2, %rax
	leaq	-4(%rax), %rdx
	movq	-96(%rbp), %rax
	addq	%rdx, %rax
	movl	(%rax), %eax
	cmpl	%eax, -52(%rbp)
	jl	.L272
	movl	-12(%rbp), %eax
	addl	$2, %eax
	imull	-112(%rbp), %eax
	movl	%eax, %edx
	movl	-16(%rbp), %eax
	addl	%edx, %eax
	cltq
	leaq	0(,%rax,4), %rdx
	movq	-96(%rbp), %rax
	addq	%rdx, %rax
	movl	(%rax), %eax
	cmpl	%eax, -52(%rbp)
	jl	.L272
	movl	-12(%rbp), %eax
	addl	$2, %eax
	imull	-112(%rbp), %eax
	movl	%eax, %edx
	movl	-16(%rbp), %eax
	addl	%edx, %eax
	cltq
	addq	$1, %rax
	leaq	0(,%rax,4), %rdx
	movq	-96(%rbp), %rax
	addq	%rdx, %rax
	movl	(%rax), %eax
	cmpl	%eax, -52(%rbp)
	jl	.L272
	movl	-12(%rbp), %eax
	addl	$2, %eax
	imull	-112(%rbp), %eax
	movl	%eax, %edx
	movl	-16(%rbp), %eax
	addl	%edx, %eax
	cltq
	addq	$2, %rax
	leaq	0(,%rax,4), %rdx
	movq	-96(%rbp), %rax
	addq	%rdx, %rax
	movl	(%rax), %eax
	cmpl	%eax, -52(%rbp)
	jl	.L272
	movl	-12(%rbp), %eax
	addl	$2, %eax
	imull	-112(%rbp), %eax
	movl	%eax, %edx
	movl	-16(%rbp), %eax
	addl	%edx, %eax
	cltq
	addq	$3, %rax
	leaq	0(,%rax,4), %rdx
	movq	-96(%rbp), %rax
	addq	%rdx, %rax
	movl	(%rax), %eax
	cmpl	%eax, -52(%rbp)
	jl	.L272
	movl	-12(%rbp), %eax
	addl	$3, %eax
	imull	-112(%rbp), %eax
	movl	%eax, %edx
	movl	-16(%rbp), %eax
	addl	%edx, %eax
	cltq
	salq	$2, %rax
	leaq	-12(%rax), %rdx
	movq	-96(%rbp), %rax
	addq	%rdx, %rax
	movl	(%rax), %eax
	cmpl	%eax, -52(%rbp)
	jl	.L272
	movl	-12(%rbp), %eax
	addl	$3, %eax
	imull	-112(%rbp), %eax
	movl	%eax, %edx
	movl	-16(%rbp), %eax
	addl	%edx, %eax
	cltq
	salq	$2, %rax
	leaq	-8(%rax), %rdx
	movq	-96(%rbp), %rax
	addq	%rdx, %rax
	movl	(%rax), %eax
	cmpl	%eax, -52(%rbp)
	jl	.L272
	movl	-12(%rbp), %eax
	addl	$3, %eax
	imull	-112(%rbp), %eax
	movl	%eax, %edx
	movl	-16(%rbp), %eax
	addl	%edx, %eax
	cltq
	salq	$2, %rax
	leaq	-4(%rax), %rdx
	movq	-96(%rbp), %rax
	addq	%rdx, %rax
	movl	(%rax), %eax
	cmpl	%eax, -52(%rbp)
	jl	.L272
	movl	-12(%rbp), %eax
	addl	$3, %eax
	imull	-112(%rbp), %eax
	movl	%eax, %edx
	movl	-16(%rbp), %eax
	addl	%edx, %eax
	cltq
	leaq	0(,%rax,4), %rdx
	movq	-96(%rbp), %rax
	addq	%rdx, %rax
	movl	(%rax), %eax
	cmpl	%eax, -52(%rbp)
	jl	.L272
	movl	-12(%rbp), %eax
	addl	$3, %eax
	imull	-112(%rbp), %eax
	movl	%eax, %edx
	movl	-16(%rbp), %eax
	addl	%edx, %eax
	cltq
	addq	$1, %rax
	leaq	0(,%rax,4), %rdx
	movq	-96(%rbp), %rax
	addq	%rdx, %rax
	movl	(%rax), %eax
	cmpl	%eax, -52(%rbp)
	jl	.L272
	movl	-12(%rbp), %eax
	addl	$3, %eax
	imull	-112(%rbp), %eax
	movl	%eax, %edx
	movl	-16(%rbp), %eax
	addl	%edx, %eax
	cltq
	addq	$2, %rax
	leaq	0(,%rax,4), %rdx
	movq	-96(%rbp), %rax
	addq	%rdx, %rax
	movl	(%rax), %eax
	cmpl	%eax, -52(%rbp)
	jl	.L272
	movl	-12(%rbp), %eax
	addl	$3, %eax
	imull	-112(%rbp), %eax
	movl	%eax, %edx
	movl	-16(%rbp), %eax
	addl	%edx, %eax
	cltq
	addq	$3, %rax
	leaq	0(,%rax,4), %rdx
	movq	-96(%rbp), %rax
	addq	%rdx, %rax
	movl	(%rax), %eax
	cmpl	%eax, -52(%rbp)
	jl	.L272
	movl	-4(%rbp), %eax
	movslq	%eax, %rdx
	movq	%rdx, %rax
	addq	%rax, %rax
	addq	%rdx, %rax
	salq	$3, %rax
	movq	%rax, %rdx
	movq	-120(%rbp), %rax
	addq	%rdx, %rax
	movl	$0, 8(%rax)
	movl	-4(%rbp), %eax
	movslq	%eax, %rdx
	movq	%rdx, %rax
	addq	%rax, %rax
	addq	%rdx, %rax
	salq	$3, %rax
	movq	%rax, %rdx
	movq	-120(%rbp), %rax
	addq	%rax, %rdx
	movl	-16(%rbp), %eax
	movl	%eax, (%rdx)
	movl	-4(%rbp), %eax
	movslq	%eax, %rdx
	movq	%rdx, %rax
	addq	%rax, %rax
	addq	%rdx, %rax
	salq	$3, %rax
	movq	%rax, %rdx
	movq	-120(%rbp), %rax
	addq	%rax, %rdx
	movl	-12(%rbp), %eax
	movl	%eax, 4(%rdx)
	movl	-12(%rbp), %eax
	imull	-112(%rbp), %eax
	movl	%eax, %edx
	movl	-16(%rbp), %eax
	addl	%edx, %eax
	cltq
	leaq	0(,%rax,4), %rdx
	movq	-24(%rbp), %rax
	leaq	(%rdx,%rax), %rcx
	movl	-4(%rbp), %eax
	movslq	%eax, %rdx
	movq	%rdx, %rax
	addq	%rax, %rax
	addq	%rdx, %rax
	salq	$3, %rax
	movq	%rax, %rdx
	movq	-120(%rbp), %rax
	addq	%rax, %rdx
	movl	(%rcx), %eax
	movl	%eax, 12(%rdx)
	movl	-12(%rbp), %eax
	imull	-112(%rbp), %eax
	movl	%eax, %edx
	movl	-16(%rbp), %eax
	addl	%edx, %eax
	cltq
	leaq	0(,%rax,4), %rdx
	movq	-32(%rbp), %rax
	leaq	(%rdx,%rax), %rcx
	movl	-4(%rbp), %eax
	movslq	%eax, %rdx
	movq	%rdx, %rax
	addq	%rax, %rax
	addq	%rdx, %rax
	salq	$3, %rax
	movq	%rax, %rdx
	movq	-120(%rbp), %rax
	addq	%rax, %rdx
	movl	(%rcx), %eax
	movl	%eax, 16(%rdx)
	movl	-12(%rbp), %eax
	imull	-112(%rbp), %eax
	movl	%eax, %edx
	movl	-16(%rbp), %eax
	addl	%edx, %eax
	movslq	%eax, %rdx
	movq	-88(%rbp), %rax
	addq	%rdx, %rax
	movzbl	(%rax), %ecx
	movl	-4(%rbp), %eax
	movslq	%eax, %rdx
	movq	%rdx, %rax
	addq	%rax, %rax
	addq	%rdx, %rax
	salq	$3, %rax
	movq	%rax, %rdx
	movq	-120(%rbp), %rax
	addq	%rax, %rdx
	movzbl	%cl, %eax
	movl	%eax, 20(%rdx)
	addl	$1, -4(%rbp)
	cmpl	$15000, -4(%rbp)
	jne	.L272
	movq	stderr(%rip), %rax
	movq	%rax, %rcx
	movl	$18, %edx
	movl	$1, %esi
	leaq	.LC42(%rip), %rdi
	call	fwrite@PLT
	movl	$1, %edi
	call	exit@PLT
.L272:
	addl	$1, -16(%rbp)
.L271:
	movl	-112(%rbp), %eax
	subl	$5, %eax
	cmpl	%eax, -16(%rbp)
	jl	.L273
	addl	$1, -12(%rbp)
.L270:
	movl	16(%rbp), %eax
	subl	$5, %eax
	cmpl	%eax, -12(%rbp)
	jl	.L274
	movl	-4(%rbp), %eax
	movslq	%eax, %rdx
	movq	%rdx, %rax
	addq	%rax, %rax
	addq	%rdx, %rax
	salq	$3, %rax
	movq	%rax, %rdx
	movq	-120(%rbp), %rax
	addq	%rdx, %rax
	movl	$7, 8(%rax)
	movq	-24(%rbp), %rax
	movq	%rax, %rdi
	call	free@PLT
	movq	-32(%rbp), %rax
	movq	%rax, %rdi
	call	free@PLT
	nop
	leave
	.cfi_def_cfa 7, 8
	ret
	.cfi_endproc
.LFE21:
	.size	susan_corners, .-susan_corners
	.globl	susan_corners_quick
	.type	susan_corners_quick, @function
susan_corners_quick:
.LFB22:
	.cfi_startproc
	pushq	%rbp
	.cfi_def_cfa_offset 16
	.cfi_offset 6, -16
	movq	%rsp, %rbp
	.cfi_def_cfa_register 6
	subq	$96, %rsp
	movq	%rdi, -56(%rbp)
	movq	%rsi, -64(%rbp)
	movq	%rdx, -72(%rbp)
	movl	%ecx, -76(%rbp)
	movq	%r8, -88(%rbp)
	movl	%r9d, -80(%rbp)
	movl	-80(%rbp), %eax
	imull	16(%rbp), %eax
	cltq
	leaq	0(,%rax,4), %rdx
	movq	-64(%rbp), %rax
	movl	$0, %esi
	movq	%rax, %rdi
	call	memset@PLT
	movl	$7, -8(%rbp)
	jmp	.L288
.L292:
	movl	$7, -12(%rbp)
	jmp	.L289
.L291:
	movl	$100, -4(%rbp)
	movl	-8(%rbp), %eax
	subl	$3, %eax
	imull	-80(%rbp), %eax
	movslq	%eax, %rdx
	movl	-12(%rbp), %eax
	cltq
	addq	%rdx, %rax
	leaq	-1(%rax), %rdx
	movq	-56(%rbp), %rax
	addq	%rdx, %rax
	movq	%rax, -24(%rbp)
	movl	-8(%rbp), %eax
	imull	-80(%rbp), %eax
	movl	%eax, %edx
	movl	-12(%rbp), %eax
	addl	%edx, %eax
	movslq	%eax, %rdx
	movq	-56(%rbp), %rax
	addq	%rdx, %rax
	movzbl	(%rax), %eax
	movzbl	%al, %edx
	movq	-72(%rbp), %rax
	addq	%rdx, %rax
	movq	%rax, -32(%rbp)
	movq	-24(%rbp), %rax
	leaq	1(%rax), %rdx
	movq	%rdx, -24(%rbp)
	movzbl	(%rax), %eax
	movzbl	%al, %eax
	negq	%rax
	movq	%rax, %rdx
	movq	-32(%rbp), %rax
	addq	%rdx, %rax
	movzbl	(%rax), %eax
	movzbl	%al, %eax
	addl	%eax, -4(%rbp)
	movq	-24(%rbp), %rax
	leaq	1(%rax), %rdx
	movq	%rdx, -24(%rbp)
	movzbl	(%rax), %eax
	movzbl	%al, %eax
	negq	%rax
	movq	%rax, %rdx
	movq	-32(%rbp), %rax
	addq	%rdx, %rax
	movzbl	(%rax), %eax
	movzbl	%al, %eax
	addl	%eax, -4(%rbp)
	movq	-24(%rbp), %rax
	movzbl	(%rax), %eax
	movzbl	%al, %eax
	negq	%rax
	movq	%rax, %rdx
	movq	-32(%rbp), %rax
	addq	%rdx, %rax
	movzbl	(%rax), %eax
	movzbl	%al, %eax
	addl	%eax, -4(%rbp)
	movl	-80(%rbp), %eax
	cltq
	subq	$3, %rax
	addq	%rax, -24(%rbp)
	movq	-24(%rbp), %rax
	leaq	1(%rax), %rdx
	movq	%rdx, -24(%rbp)
	movzbl	(%rax), %eax
	movzbl	%al, %eax
	negq	%rax
	movq	%rax, %rdx
	movq	-32(%rbp), %rax
	addq	%rdx, %rax
	movzbl	(%rax), %eax
	movzbl	%al, %eax
	addl	%eax, -4(%rbp)
	movq	-24(%rbp), %rax
	leaq	1(%rax), %rdx
	movq	%rdx, -24(%rbp)
	movzbl	(%rax), %eax
	movzbl	%al, %eax
	negq	%rax
	movq	%rax, %rdx
	movq	-32(%rbp), %rax
	addq	%rdx, %rax
	movzbl	(%rax), %eax
	movzbl	%al, %eax
	addl	%eax, -4(%rbp)
	movq	-24(%rbp), %rax
	leaq	1(%rax), %rdx
	movq	%rdx, -24(%rbp)
	movzbl	(%rax), %eax
	movzbl	%al, %eax
	negq	%rax
	movq	%rax, %rdx
	movq	-32(%rbp), %rax
	addq	%rdx, %rax
	movzbl	(%rax), %eax
	movzbl	%al, %eax
	addl	%eax, -4(%rbp)
	movq	-24(%rbp), %rax
	leaq	1(%rax), %rdx
	movq	%rdx, -24(%rbp)
	movzbl	(%rax), %eax
	movzbl	%al, %eax
	negq	%rax
	movq	%rax, %rdx
	movq	-32(%rbp), %rax
	addq	%rdx, %rax
	movzbl	(%rax), %eax
	movzbl	%al, %eax
	addl	%eax, -4(%rbp)
	movq	-24(%rbp), %rax
	movzbl	(%rax), %eax
	movzbl	%al, %eax
	negq	%rax
	movq	%rax, %rdx
	movq	-32(%rbp), %rax
	addq	%rdx, %rax
	movzbl	(%rax), %eax
	movzbl	%al, %eax
	addl	%eax, -4(%rbp)
	movl	-80(%rbp), %eax
	cltq
	subq	$5, %rax
	addq	%rax, -24(%rbp)
	movq	-24(%rbp), %rax
	leaq	1(%rax), %rdx
	movq	%rdx, -24(%rbp)
	movzbl	(%rax), %eax
	movzbl	%al, %eax
	negq	%rax
	movq	%rax, %rdx
	movq	-32(%rbp), %rax
	addq	%rdx, %rax
	movzbl	(%rax), %eax
	movzbl	%al, %eax
	addl	%eax, -4(%rbp)
	movq	-24(%rbp), %rax
	leaq	1(%rax), %rdx
	movq	%rdx, -24(%rbp)
	movzbl	(%rax), %eax
	movzbl	%al, %eax
	negq	%rax
	movq	%rax, %rdx
	movq	-32(%rbp), %rax
	addq	%rdx, %rax
	movzbl	(%rax), %eax
	movzbl	%al, %eax
	addl	%eax, -4(%rbp)
	movq	-24(%rbp), %rax
	leaq	1(%rax), %rdx
	movq	%rdx, -24(%rbp)
	movzbl	(%rax), %eax
	movzbl	%al, %eax
	negq	%rax
	movq	%rax, %rdx
	movq	-32(%rbp), %rax
	addq	%rdx, %rax
	movzbl	(%rax), %eax
	movzbl	%al, %eax
	addl	%eax, -4(%rbp)
	movq	-24(%rbp), %rax
	leaq	1(%rax), %rdx
	movq	%rdx, -24(%rbp)
	movzbl	(%rax), %eax
	movzbl	%al, %eax
	negq	%rax
	movq	%rax, %rdx
	movq	-32(%rbp), %rax
	addq	%rdx, %rax
	movzbl	(%rax), %eax
	movzbl	%al, %eax
	addl	%eax, -4(%rbp)
	movq	-24(%rbp), %rax
	leaq	1(%rax), %rdx
	movq	%rdx, -24(%rbp)
	movzbl	(%rax), %eax
	movzbl	%al, %eax
	negq	%rax
	movq	%rax, %rdx
	movq	-32(%rbp), %rax
	addq	%rdx, %rax
	movzbl	(%rax), %eax
	movzbl	%al, %eax
	addl	%eax, -4(%rbp)
	movq	-24(%rbp), %rax
	leaq	1(%rax), %rdx
	movq	%rdx, -24(%rbp)
	movzbl	(%rax), %eax
	movzbl	%al, %eax
	negq	%rax
	movq	%rax, %rdx
	movq	-32(%rbp), %rax
	addq	%rdx, %rax
	movzbl	(%rax), %eax
	movzbl	%al, %eax
	addl	%eax, -4(%rbp)
	movq	-24(%rbp), %rax
	movzbl	(%rax), %eax
	movzbl	%al, %eax
	negq	%rax
	movq	%rax, %rdx
	movq	-32(%rbp), %rax
	addq	%rdx, %rax
	movzbl	(%rax), %eax
	movzbl	%al, %eax
	addl	%eax, -4(%rbp)
	movl	-80(%rbp), %eax
	cltq
	subq	$6, %rax
	addq	%rax, -24(%rbp)
	movq	-24(%rbp), %rax
	leaq	1(%rax), %rdx
	movq	%rdx, -24(%rbp)
	movzbl	(%rax), %eax
	movzbl	%al, %eax
	negq	%rax
	movq	%rax, %rdx
	movq	-32(%rbp), %rax
	addq	%rdx, %rax
	movzbl	(%rax), %eax
	movzbl	%al, %eax
	addl	%eax, -4(%rbp)
	movq	-24(%rbp), %rax
	leaq	1(%rax), %rdx
	movq	%rdx, -24(%rbp)
	movzbl	(%rax), %eax
	movzbl	%al, %eax
	negq	%rax
	movq	%rax, %rdx
	movq	-32(%rbp), %rax
	addq	%rdx, %rax
	movzbl	(%rax), %eax
	movzbl	%al, %eax
	addl	%eax, -4(%rbp)
	movq	-24(%rbp), %rax
	movzbl	(%rax), %eax
	movzbl	%al, %eax
	negq	%rax
	movq	%rax, %rdx
	movq	-32(%rbp), %rax
	addq	%rdx, %rax
	movzbl	(%rax), %eax
	movzbl	%al, %eax
	addl	%eax, -4(%rbp)
	movl	-4(%rbp), %eax
	cmpl	-76(%rbp), %eax
	jge	.L290
	addq	$2, -24(%rbp)
	movq	-24(%rbp), %rax
	leaq	1(%rax), %rdx
	movq	%rdx, -24(%rbp)
	movzbl	(%rax), %eax
	movzbl	%al, %eax
	negq	%rax
	movq	%rax, %rdx
	movq	-32(%rbp), %rax
	addq	%rdx, %rax
	movzbl	(%rax), %eax
	movzbl	%al, %eax
	addl	%eax, -4(%rbp)
	movl	-4(%rbp), %eax
	cmpl	-76(%rbp), %eax
	jge	.L290
	movq	-24(%rbp), %rax
	leaq	1(%rax), %rdx
	movq	%rdx, -24(%rbp)
	movzbl	(%rax), %eax
	movzbl	%al, %eax
	negq	%rax
	movq	%rax, %rdx
	movq	-32(%rbp), %rax
	addq	%rdx, %rax
	movzbl	(%rax), %eax
	movzbl	%al, %eax
	addl	%eax, -4(%rbp)
	movl	-4(%rbp), %eax
	cmpl	-76(%rbp), %eax
	jge	.L290
	movq	-24(%rbp), %rax
	movzbl	(%rax), %eax
	movzbl	%al, %eax
	negq	%rax
	movq	%rax, %rdx
	movq	-32(%rbp), %rax
	addq	%rdx, %rax
	movzbl	(%rax), %eax
	movzbl	%al, %eax
	addl	%eax, -4(%rbp)
	movl	-4(%rbp), %eax
	cmpl	-76(%rbp), %eax
	jge	.L290
	movl	-80(%rbp), %eax
	cltq
	subq	$6, %rax
	addq	%rax, -24(%rbp)
	movq	-24(%rbp), %rax
	leaq	1(%rax), %rdx
	movq	%rdx, -24(%rbp)
	movzbl	(%rax), %eax
	movzbl	%al, %eax
	negq	%rax
	movq	%rax, %rdx
	movq	-32(%rbp), %rax
	addq	%rdx, %rax
	movzbl	(%rax), %eax
	movzbl	%al, %eax
	addl	%eax, -4(%rbp)
	movl	-4(%rbp), %eax
	cmpl	-76(%rbp), %eax
	jge	.L290
	movq	-24(%rbp), %rax
	leaq	1(%rax), %rdx
	movq	%rdx, -24(%rbp)
	movzbl	(%rax), %eax
	movzbl	%al, %eax
	negq	%rax
	movq	%rax, %rdx
	movq	-32(%rbp), %rax
	addq	%rdx, %rax
	movzbl	(%rax), %eax
	movzbl	%al, %eax
	addl	%eax, -4(%rbp)
	movl	-4(%rbp), %eax
	cmpl	-76(%rbp), %eax
	jge	.L290
	movq	-24(%rbp), %rax
	leaq	1(%rax), %rdx
	movq	%rdx, -24(%rbp)
	movzbl	(%rax), %eax
	movzbl	%al, %eax
	negq	%rax
	movq	%rax, %rdx
	movq	-32(%rbp), %rax
	addq	%rdx, %rax
	movzbl	(%rax), %eax
	movzbl	%al, %eax
	addl	%eax, -4(%rbp)
	movl	-4(%rbp), %eax
	cmpl	-76(%rbp), %eax
	jge	.L290
	movq	-24(%rbp), %rax
	leaq	1(%rax), %rdx
	movq	%rdx, -24(%rbp)
	movzbl	(%rax), %eax
	movzbl	%al, %eax
	negq	%rax
	movq	%rax, %rdx
	movq	-32(%rbp), %rax
	addq	%rdx, %rax
	movzbl	(%rax), %eax
	movzbl	%al, %eax
	addl	%eax, -4(%rbp)
	movl	-4(%rbp), %eax
	cmpl	-76(%rbp), %eax
	jge	.L290
	movq	-24(%rbp), %rax
	leaq	1(%rax), %rdx
	movq	%rdx, -24(%rbp)
	movzbl	(%rax), %eax
	movzbl	%al, %eax
	negq	%rax
	movq	%rax, %rdx
	movq	-32(%rbp), %rax
	addq	%rdx, %rax
	movzbl	(%rax), %eax
	movzbl	%al, %eax
	addl	%eax, -4(%rbp)
	movl	-4(%rbp), %eax
	cmpl	-76(%rbp), %eax
	jge	.L290
	movq	-24(%rbp), %rax
	leaq	1(%rax), %rdx
	movq	%rdx, -24(%rbp)
	movzbl	(%rax), %eax
	movzbl	%al, %eax
	negq	%rax
	movq	%rax, %rdx
	movq	-32(%rbp), %rax
	addq	%rdx, %rax
	movzbl	(%rax), %eax
	movzbl	%al, %eax
	addl	%eax, -4(%rbp)
	movl	-4(%rbp), %eax
	cmpl	-76(%rbp), %eax
	jge	.L290
	movq	-24(%rbp), %rax
	movzbl	(%rax), %eax
	movzbl	%al, %eax
	negq	%rax
	movq	%rax, %rdx
	movq	-32(%rbp), %rax
	addq	%rdx, %rax
	movzbl	(%rax), %eax
	movzbl	%al, %eax
	addl	%eax, -4(%rbp)
	movl	-4(%rbp), %eax
	cmpl	-76(%rbp), %eax
	jge	.L290
	movl	-80(%rbp), %eax
	cltq
	subq	$5, %rax
	addq	%rax, -24(%rbp)
	movq	-24(%rbp), %rax
	leaq	1(%rax), %rdx
	movq	%rdx, -24(%rbp)
	movzbl	(%rax), %eax
	movzbl	%al, %eax
	negq	%rax
	movq	%rax, %rdx
	movq	-32(%rbp), %rax
	addq	%rdx, %rax
	movzbl	(%rax), %eax
	movzbl	%al, %eax
	addl	%eax, -4(%rbp)
	movl	-4(%rbp), %eax
	cmpl	-76(%rbp), %eax
	jge	.L290
	movq	-24(%rbp), %rax
	leaq	1(%rax), %rdx
	movq	%rdx, -24(%rbp)
	movzbl	(%rax), %eax
	movzbl	%al, %eax
	negq	%rax
	movq	%rax, %rdx
	movq	-32(%rbp), %rax
	addq	%rdx, %rax
	movzbl	(%rax), %eax
	movzbl	%al, %eax
	addl	%eax, -4(%rbp)
	movl	-4(%rbp), %eax
	cmpl	-76(%rbp), %eax
	jge	.L290
	movq	-24(%rbp), %rax
	leaq	1(%rax), %rdx
	movq	%rdx, -24(%rbp)
	movzbl	(%rax), %eax
	movzbl	%al, %eax
	negq	%rax
	movq	%rax, %rdx
	movq	-32(%rbp), %rax
	addq	%rdx, %rax
	movzbl	(%rax), %eax
	movzbl	%al, %eax
	addl	%eax, -4(%rbp)
	movl	-4(%rbp), %eax
	cmpl	-76(%rbp), %eax
	jge	.L290
	movq	-24(%rbp), %rax
	leaq	1(%rax), %rdx
	movq	%rdx, -24(%rbp)
	movzbl	(%rax), %eax
	movzbl	%al, %eax
	negq	%rax
	movq	%rax, %rdx
	movq	-32(%rbp), %rax
	addq	%rdx, %rax
	movzbl	(%rax), %eax
	movzbl	%al, %eax
	addl	%eax, -4(%rbp)
	movl	-4(%rbp), %eax
	cmpl	-76(%rbp), %eax
	jge	.L290
	movq	-24(%rbp), %rax
	movzbl	(%rax), %eax
	movzbl	%al, %eax
	negq	%rax
	movq	%rax, %rdx
	movq	-32(%rbp), %rax
	addq	%rdx, %rax
	movzbl	(%rax), %eax
	movzbl	%al, %eax
	addl	%eax, -4(%rbp)
	movl	-4(%rbp), %eax
	cmpl	-76(%rbp), %eax
	jge	.L290
	movl	-80(%rbp), %eax
	cltq
	subq	$3, %rax
	addq	%rax, -24(%rbp)
	movq	-24(%rbp), %rax
	leaq	1(%rax), %rdx
	movq	%rdx, -24(%rbp)
	movzbl	(%rax), %eax
	movzbl	%al, %eax
	negq	%rax
	movq	%rax, %rdx
	movq	-32(%rbp), %rax
	addq	%rdx, %rax
	movzbl	(%rax), %eax
	movzbl	%al, %eax
	addl	%eax, -4(%rbp)
	movl	-4(%rbp), %eax
	cmpl	-76(%rbp), %eax
	jge	.L290
	movq	-24(%rbp), %rax
	leaq	1(%rax), %rdx
	movq	%rdx, -24(%rbp)
	movzbl	(%rax), %eax
	movzbl	%al, %eax
	negq	%rax
	movq	%rax, %rdx
	movq	-32(%rbp), %rax
	addq	%rdx, %rax
	movzbl	(%rax), %eax
	movzbl	%al, %eax
	addl	%eax, -4(%rbp)
	movl	-4(%rbp), %eax
	cmpl	-76(%rbp), %eax
	jge	.L290
	movq	-24(%rbp), %rax
	movzbl	(%rax), %eax
	movzbl	%al, %eax
	negq	%rax
	movq	%rax, %rdx
	movq	-32(%rbp), %rax
	addq	%rdx, %rax
	movzbl	(%rax), %eax
	movzbl	%al, %eax
	addl	%eax, -4(%rbp)
	movl	-4(%rbp), %eax
	cmpl	-76(%rbp), %eax
	jge	.L290
	movl	-8(%rbp), %eax
	imull	-80(%rbp), %eax
	movl	%eax, %edx
	movl	-12(%rbp), %eax
	addl	%edx, %eax
	cltq
	leaq	0(,%rax,4), %rdx
	movq	-64(%rbp), %rax
	addq	%rax, %rdx
	movl	-76(%rbp), %eax
	subl	-4(%rbp), %eax
	movl	%eax, (%rdx)
.L290:
	addl	$1, -12(%rbp)
.L289:
	movl	-80(%rbp), %eax
	subl	$7, %eax
	cmpl	%eax, -12(%rbp)
	jl	.L291
	addl	$1, -8(%rbp)
.L288:
	movl	16(%rbp), %eax
	subl	$7, %eax
	cmpl	%eax, -8(%rbp)
	jl	.L292
	movl	$0, -4(%rbp)
	movl	$7, -8(%rbp)
	jmp	.L293
.L297:
	movl	$7, -12(%rbp)
	jmp	.L294
.L296:
	movl	-8(%rbp), %eax
	imull	-80(%rbp), %eax
	movl	%eax, %edx
	movl	-12(%rbp), %eax
	addl	%edx, %eax
	cltq
	leaq	0(,%rax,4), %rdx
	movq	-64(%rbp), %rax
	addq	%rdx, %rax
	movl	(%rax), %eax
	movl	%eax, -36(%rbp)
	cmpl	$0, -36(%rbp)
	jle	.L295
	movl	-8(%rbp), %eax
	subl	$3, %eax
	imull	-80(%rbp), %eax
	movl	%eax, %edx
	movl	-12(%rbp), %eax
	addl	%edx, %eax
	cltq
	salq	$2, %rax
	leaq	-12(%rax), %rdx
	movq	-64(%rbp), %rax
	addq	%rdx, %rax
	movl	(%rax), %eax
	cmpl	%eax, -36(%rbp)
	jle	.L295
	movl	-8(%rbp), %eax
	subl	$3, %eax
	imull	-80(%rbp), %eax
	movl	%eax, %edx
	movl	-12(%rbp), %eax
	addl	%edx, %eax
	cltq
	salq	$2, %rax
	leaq	-8(%rax), %rdx
	movq	-64(%rbp), %rax
	addq	%rdx, %rax
	movl	(%rax), %eax
	cmpl	%eax, -36(%rbp)
	jle	.L295
	movl	-8(%rbp), %eax
	subl	$3, %eax
	imull	-80(%rbp), %eax
	movl	%eax, %edx
	movl	-12(%rbp), %eax
	addl	%edx, %eax
	cltq
	salq	$2, %rax
	leaq	-4(%rax), %rdx
	movq	-64(%rbp), %rax
	addq	%rdx, %rax
	movl	(%rax), %eax
	cmpl	%eax, -36(%rbp)
	jle	.L295
	movl	-8(%rbp), %eax
	subl	$3, %eax
	imull	-80(%rbp), %eax
	movl	%eax, %edx
	movl	-12(%rbp), %eax
	addl	%edx, %eax
	cltq
	leaq	0(,%rax,4), %rdx
	movq	-64(%rbp), %rax
	addq	%rdx, %rax
	movl	(%rax), %eax
	cmpl	%eax, -36(%rbp)
	jle	.L295
	movl	-8(%rbp), %eax
	subl	$3, %eax
	imull	-80(%rbp), %eax
	movl	%eax, %edx
	movl	-12(%rbp), %eax
	addl	%edx, %eax
	cltq
	addq	$1, %rax
	leaq	0(,%rax,4), %rdx
	movq	-64(%rbp), %rax
	addq	%rdx, %rax
	movl	(%rax), %eax
	cmpl	%eax, -36(%rbp)
	jle	.L295
	movl	-8(%rbp), %eax
	subl	$3, %eax
	imull	-80(%rbp), %eax
	movl	%eax, %edx
	movl	-12(%rbp), %eax
	addl	%edx, %eax
	cltq
	addq	$2, %rax
	leaq	0(,%rax,4), %rdx
	movq	-64(%rbp), %rax
	addq	%rdx, %rax
	movl	(%rax), %eax
	cmpl	%eax, -36(%rbp)
	jle	.L295
	movl	-8(%rbp), %eax
	subl	$3, %eax
	imull	-80(%rbp), %eax
	movl	%eax, %edx
	movl	-12(%rbp), %eax
	addl	%edx, %eax
	cltq
	addq	$3, %rax
	leaq	0(,%rax,4), %rdx
	movq	-64(%rbp), %rax
	addq	%rdx, %rax
	movl	(%rax), %eax
	cmpl	%eax, -36(%rbp)
	jle	.L295
	movl	-8(%rbp), %eax
	subl	$2, %eax
	imull	-80(%rbp), %eax
	movl	%eax, %edx
	movl	-12(%rbp), %eax
	addl	%edx, %eax
	cltq
	salq	$2, %rax
	leaq	-12(%rax), %rdx
	movq	-64(%rbp), %rax
	addq	%rdx, %rax
	movl	(%rax), %eax
	cmpl	%eax, -36(%rbp)
	jle	.L295
	movl	-8(%rbp), %eax
	subl	$2, %eax
	imull	-80(%rbp), %eax
	movl	%eax, %edx
	movl	-12(%rbp), %eax
	addl	%edx, %eax
	cltq
	salq	$2, %rax
	leaq	-8(%rax), %rdx
	movq	-64(%rbp), %rax
	addq	%rdx, %rax
	movl	(%rax), %eax
	cmpl	%eax, -36(%rbp)
	jle	.L295
	movl	-8(%rbp), %eax
	subl	$2, %eax
	imull	-80(%rbp), %eax
	movl	%eax, %edx
	movl	-12(%rbp), %eax
	addl	%edx, %eax
	cltq
	salq	$2, %rax
	leaq	-4(%rax), %rdx
	movq	-64(%rbp), %rax
	addq	%rdx, %rax
	movl	(%rax), %eax
	cmpl	%eax, -36(%rbp)
	jle	.L295
	movl	-8(%rbp), %eax
	subl	$2, %eax
	imull	-80(%rbp), %eax
	movl	%eax, %edx
	movl	-12(%rbp), %eax
	addl	%edx, %eax
	cltq
	leaq	0(,%rax,4), %rdx
	movq	-64(%rbp), %rax
	addq	%rdx, %rax
	movl	(%rax), %eax
	cmpl	%eax, -36(%rbp)
	jle	.L295
	movl	-8(%rbp), %eax
	subl	$2, %eax
	imull	-80(%rbp), %eax
	movl	%eax, %edx
	movl	-12(%rbp), %eax
	addl	%edx, %eax
	cltq
	addq	$1, %rax
	leaq	0(,%rax,4), %rdx
	movq	-64(%rbp), %rax
	addq	%rdx, %rax
	movl	(%rax), %eax
	cmpl	%eax, -36(%rbp)
	jle	.L295
	movl	-8(%rbp), %eax
	subl	$2, %eax
	imull	-80(%rbp), %eax
	movl	%eax, %edx
	movl	-12(%rbp), %eax
	addl	%edx, %eax
	cltq
	addq	$2, %rax
	leaq	0(,%rax,4), %rdx
	movq	-64(%rbp), %rax
	addq	%rdx, %rax
	movl	(%rax), %eax
	cmpl	%eax, -36(%rbp)
	jle	.L295
	movl	-8(%rbp), %eax
	subl	$2, %eax
	imull	-80(%rbp), %eax
	movl	%eax, %edx
	movl	-12(%rbp), %eax
	addl	%edx, %eax
	cltq
	addq	$3, %rax
	leaq	0(,%rax,4), %rdx
	movq	-64(%rbp), %rax
	addq	%rdx, %rax
	movl	(%rax), %eax
	cmpl	%eax, -36(%rbp)
	jle	.L295
	movl	-8(%rbp), %eax
	subl	$1, %eax
	imull	-80(%rbp), %eax
	movl	%eax, %edx
	movl	-12(%rbp), %eax
	addl	%edx, %eax
	cltq
	salq	$2, %rax
	leaq	-12(%rax), %rdx
	movq	-64(%rbp), %rax
	addq	%rdx, %rax
	movl	(%rax), %eax
	cmpl	%eax, -36(%rbp)
	jle	.L295
	movl	-8(%rbp), %eax
	subl	$1, %eax
	imull	-80(%rbp), %eax
	movl	%eax, %edx
	movl	-12(%rbp), %eax
	addl	%edx, %eax
	cltq
	salq	$2, %rax
	leaq	-8(%rax), %rdx
	movq	-64(%rbp), %rax
	addq	%rdx, %rax
	movl	(%rax), %eax
	cmpl	%eax, -36(%rbp)
	jle	.L295
	movl	-8(%rbp), %eax
	subl	$1, %eax
	imull	-80(%rbp), %eax
	movl	%eax, %edx
	movl	-12(%rbp), %eax
	addl	%edx, %eax
	cltq
	salq	$2, %rax
	leaq	-4(%rax), %rdx
	movq	-64(%rbp), %rax
	addq	%rdx, %rax
	movl	(%rax), %eax
	cmpl	%eax, -36(%rbp)
	jle	.L295
	movl	-8(%rbp), %eax
	subl	$1, %eax
	imull	-80(%rbp), %eax
	movl	%eax, %edx
	movl	-12(%rbp), %eax
	addl	%edx, %eax
	cltq
	leaq	0(,%rax,4), %rdx
	movq	-64(%rbp), %rax
	addq	%rdx, %rax
	movl	(%rax), %eax
	cmpl	%eax, -36(%rbp)
	jle	.L295
	movl	-8(%rbp), %eax
	subl	$1, %eax
	imull	-80(%rbp), %eax
	movl	%eax, %edx
	movl	-12(%rbp), %eax
	addl	%edx, %eax
	cltq
	addq	$1, %rax
	leaq	0(,%rax,4), %rdx
	movq	-64(%rbp), %rax
	addq	%rdx, %rax
	movl	(%rax), %eax
	cmpl	%eax, -36(%rbp)
	jle	.L295
	movl	-8(%rbp), %eax
	subl	$1, %eax
	imull	-80(%rbp), %eax
	movl	%eax, %edx
	movl	-12(%rbp), %eax
	addl	%edx, %eax
	cltq
	addq	$2, %rax
	leaq	0(,%rax,4), %rdx
	movq	-64(%rbp), %rax
	addq	%rdx, %rax
	movl	(%rax), %eax
	cmpl	%eax, -36(%rbp)
	jle	.L295
	movl	-8(%rbp), %eax
	subl	$1, %eax
	imull	-80(%rbp), %eax
	movl	%eax, %edx
	movl	-12(%rbp), %eax
	addl	%edx, %eax
	cltq
	addq	$3, %rax
	leaq	0(,%rax,4), %rdx
	movq	-64(%rbp), %rax
	addq	%rdx, %rax
	movl	(%rax), %eax
	cmpl	%eax, -36(%rbp)
	jle	.L295
	movl	-8(%rbp), %eax
	imull	-80(%rbp), %eax
	movl	%eax, %edx
	movl	-12(%rbp), %eax
	addl	%edx, %eax
	cltq
	salq	$2, %rax
	leaq	-12(%rax), %rdx
	movq	-64(%rbp), %rax
	addq	%rdx, %rax
	movl	(%rax), %eax
	cmpl	%eax, -36(%rbp)
	jle	.L295
	movl	-8(%rbp), %eax
	imull	-80(%rbp), %eax
	movl	%eax, %edx
	movl	-12(%rbp), %eax
	addl	%edx, %eax
	cltq
	salq	$2, %rax
	leaq	-8(%rax), %rdx
	movq	-64(%rbp), %rax
	addq	%rdx, %rax
	movl	(%rax), %eax
	cmpl	%eax, -36(%rbp)
	jle	.L295
	movl	-8(%rbp), %eax
	imull	-80(%rbp), %eax
	movl	%eax, %edx
	movl	-12(%rbp), %eax
	addl	%edx, %eax
	cltq
	salq	$2, %rax
	leaq	-4(%rax), %rdx
	movq	-64(%rbp), %rax
	addq	%rdx, %rax
	movl	(%rax), %eax
	cmpl	%eax, -36(%rbp)
	jle	.L295
	movl	-8(%rbp), %eax
	imull	-80(%rbp), %eax
	movl	%eax, %edx
	movl	-12(%rbp), %eax
	addl	%edx, %eax
	cltq
	addq	$1, %rax
	leaq	0(,%rax,4), %rdx
	movq	-64(%rbp), %rax
	addq	%rdx, %rax
	movl	(%rax), %eax
	cmpl	%eax, -36(%rbp)
	jl	.L295
	movl	-8(%rbp), %eax
	imull	-80(%rbp), %eax
	movl	%eax, %edx
	movl	-12(%rbp), %eax
	addl	%edx, %eax
	cltq
	addq	$2, %rax
	leaq	0(,%rax,4), %rdx
	movq	-64(%rbp), %rax
	addq	%rdx, %rax
	movl	(%rax), %eax
	cmpl	%eax, -36(%rbp)
	jl	.L295
	movl	-8(%rbp), %eax
	imull	-80(%rbp), %eax
	movl	%eax, %edx
	movl	-12(%rbp), %eax
	addl	%edx, %eax
	cltq
	addq	$3, %rax
	leaq	0(,%rax,4), %rdx
	movq	-64(%rbp), %rax
	addq	%rdx, %rax
	movl	(%rax), %eax
	cmpl	%eax, -36(%rbp)
	jl	.L295
	movl	-8(%rbp), %eax
	addl	$1, %eax
	imull	-80(%rbp), %eax
	movl	%eax, %edx
	movl	-12(%rbp), %eax
	addl	%edx, %eax
	cltq
	salq	$2, %rax
	leaq	-12(%rax), %rdx
	movq	-64(%rbp), %rax
	addq	%rdx, %rax
	movl	(%rax), %eax
	cmpl	%eax, -36(%rbp)
	jl	.L295
	movl	-8(%rbp), %eax
	addl	$1, %eax
	imull	-80(%rbp), %eax
	movl	%eax, %edx
	movl	-12(%rbp), %eax
	addl	%edx, %eax
	cltq
	salq	$2, %rax
	leaq	-8(%rax), %rdx
	movq	-64(%rbp), %rax
	addq	%rdx, %rax
	movl	(%rax), %eax
	cmpl	%eax, -36(%rbp)
	jl	.L295
	movl	-8(%rbp), %eax
	addl	$1, %eax
	imull	-80(%rbp), %eax
	movl	%eax, %edx
	movl	-12(%rbp), %eax
	addl	%edx, %eax
	cltq
	salq	$2, %rax
	leaq	-4(%rax), %rdx
	movq	-64(%rbp), %rax
	addq	%rdx, %rax
	movl	(%rax), %eax
	cmpl	%eax, -36(%rbp)
	jl	.L295
	movl	-8(%rbp), %eax
	addl	$1, %eax
	imull	-80(%rbp), %eax
	movl	%eax, %edx
	movl	-12(%rbp), %eax
	addl	%edx, %eax
	cltq
	leaq	0(,%rax,4), %rdx
	movq	-64(%rbp), %rax
	addq	%rdx, %rax
	movl	(%rax), %eax
	cmpl	%eax, -36(%rbp)
	jl	.L295
	movl	-8(%rbp), %eax
	addl	$1, %eax
	imull	-80(%rbp), %eax
	movl	%eax, %edx
	movl	-12(%rbp), %eax
	addl	%edx, %eax
	cltq
	addq	$1, %rax
	leaq	0(,%rax,4), %rdx
	movq	-64(%rbp), %rax
	addq	%rdx, %rax
	movl	(%rax), %eax
	cmpl	%eax, -36(%rbp)
	jl	.L295
	movl	-8(%rbp), %eax
	addl	$1, %eax
	imull	-80(%rbp), %eax
	movl	%eax, %edx
	movl	-12(%rbp), %eax
	addl	%edx, %eax
	cltq
	addq	$2, %rax
	leaq	0(,%rax,4), %rdx
	movq	-64(%rbp), %rax
	addq	%rdx, %rax
	movl	(%rax), %eax
	cmpl	%eax, -36(%rbp)
	jl	.L295
	movl	-8(%rbp), %eax
	addl	$1, %eax
	imull	-80(%rbp), %eax
	movl	%eax, %edx
	movl	-12(%rbp), %eax
	addl	%edx, %eax
	cltq
	addq	$3, %rax
	leaq	0(,%rax,4), %rdx
	movq	-64(%rbp), %rax
	addq	%rdx, %rax
	movl	(%rax), %eax
	cmpl	%eax, -36(%rbp)
	jl	.L295
	movl	-8(%rbp), %eax
	addl	$2, %eax
	imull	-80(%rbp), %eax
	movl	%eax, %edx
	movl	-12(%rbp), %eax
	addl	%edx, %eax
	cltq
	salq	$2, %rax
	leaq	-12(%rax), %rdx
	movq	-64(%rbp), %rax
	addq	%rdx, %rax
	movl	(%rax), %eax
	cmpl	%eax, -36(%rbp)
	jl	.L295
	movl	-8(%rbp), %eax
	addl	$2, %eax
	imull	-80(%rbp), %eax
	movl	%eax, %edx
	movl	-12(%rbp), %eax
	addl	%edx, %eax
	cltq
	salq	$2, %rax
	leaq	-8(%rax), %rdx
	movq	-64(%rbp), %rax
	addq	%rdx, %rax
	movl	(%rax), %eax
	cmpl	%eax, -36(%rbp)
	jl	.L295
	movl	-8(%rbp), %eax
	addl	$2, %eax
	imull	-80(%rbp), %eax
	movl	%eax, %edx
	movl	-12(%rbp), %eax
	addl	%edx, %eax
	cltq
	salq	$2, %rax
	leaq	-4(%rax), %rdx
	movq	-64(%rbp), %rax
	addq	%rdx, %rax
	movl	(%rax), %eax
	cmpl	%eax, -36(%rbp)
	jl	.L295
	movl	-8(%rbp), %eax
	addl	$2, %eax
	imull	-80(%rbp), %eax
	movl	%eax, %edx
	movl	-12(%rbp), %eax
	addl	%edx, %eax
	cltq
	leaq	0(,%rax,4), %rdx
	movq	-64(%rbp), %rax
	addq	%rdx, %rax
	movl	(%rax), %eax
	cmpl	%eax, -36(%rbp)
	jl	.L295
	movl	-8(%rbp), %eax
	addl	$2, %eax
	imull	-80(%rbp), %eax
	movl	%eax, %edx
	movl	-12(%rbp), %eax
	addl	%edx, %eax
	cltq
	addq	$1, %rax
	leaq	0(,%rax,4), %rdx
	movq	-64(%rbp), %rax
	addq	%rdx, %rax
	movl	(%rax), %eax
	cmpl	%eax, -36(%rbp)
	jl	.L295
	movl	-8(%rbp), %eax
	addl	$2, %eax
	imull	-80(%rbp), %eax
	movl	%eax, %edx
	movl	-12(%rbp), %eax
	addl	%edx, %eax
	cltq
	addq	$2, %rax
	leaq	0(,%rax,4), %rdx
	movq	-64(%rbp), %rax
	addq	%rdx, %rax
	movl	(%rax), %eax
	cmpl	%eax, -36(%rbp)
	jl	.L295
	movl	-8(%rbp), %eax
	addl	$2, %eax
	imull	-80(%rbp), %eax
	movl	%eax, %edx
	movl	-12(%rbp), %eax
	addl	%edx, %eax
	cltq
	addq	$3, %rax
	leaq	0(,%rax,4), %rdx
	movq	-64(%rbp), %rax
	addq	%rdx, %rax
	movl	(%rax), %eax
	cmpl	%eax, -36(%rbp)
	jl	.L295
	movl	-8(%rbp), %eax
	addl	$3, %eax
	imull	-80(%rbp), %eax
	movl	%eax, %edx
	movl	-12(%rbp), %eax
	addl	%edx, %eax
	cltq
	salq	$2, %rax
	leaq	-12(%rax), %rdx
	movq	-64(%rbp), %rax
	addq	%rdx, %rax
	movl	(%rax), %eax
	cmpl	%eax, -36(%rbp)
	jl	.L295
	movl	-8(%rbp), %eax
	addl	$3, %eax
	imull	-80(%rbp), %eax
	movl	%eax, %edx
	movl	-12(%rbp), %eax
	addl	%edx, %eax
	cltq
	salq	$2, %rax
	leaq	-8(%rax), %rdx
	movq	-64(%rbp), %rax
	addq	%rdx, %rax
	movl	(%rax), %eax
	cmpl	%eax, -36(%rbp)
	jl	.L295
	movl	-8(%rbp), %eax
	addl	$3, %eax
	imull	-80(%rbp), %eax
	movl	%eax, %edx
	movl	-12(%rbp), %eax
	addl	%edx, %eax
	cltq
	salq	$2, %rax
	leaq	-4(%rax), %rdx
	movq	-64(%rbp), %rax
	addq	%rdx, %rax
	movl	(%rax), %eax
	cmpl	%eax, -36(%rbp)
	jl	.L295
	movl	-8(%rbp), %eax
	addl	$3, %eax
	imull	-80(%rbp), %eax
	movl	%eax, %edx
	movl	-12(%rbp), %eax
	addl	%edx, %eax
	cltq
	leaq	0(,%rax,4), %rdx
	movq	-64(%rbp), %rax
	addq	%rdx, %rax
	movl	(%rax), %eax
	cmpl	%eax, -36(%rbp)
	jl	.L295
	movl	-8(%rbp), %eax
	addl	$3, %eax
	imull	-80(%rbp), %eax
	movl	%eax, %edx
	movl	-12(%rbp), %eax
	addl	%edx, %eax
	cltq
	addq	$1, %rax
	leaq	0(,%rax,4), %rdx
	movq	-64(%rbp), %rax
	addq	%rdx, %rax
	movl	(%rax), %eax
	cmpl	%eax, -36(%rbp)
	jl	.L295
	movl	-8(%rbp), %eax
	addl	$3, %eax
	imull	-80(%rbp), %eax
	movl	%eax, %edx
	movl	-12(%rbp), %eax
	addl	%edx, %eax
	cltq
	addq	$2, %rax
	leaq	0(,%rax,4), %rdx
	movq	-64(%rbp), %rax
	addq	%rdx, %rax
	movl	(%rax), %eax
	cmpl	%eax, -36(%rbp)
	jl	.L295
	movl	-8(%rbp), %eax
	addl	$3, %eax
	imull	-80(%rbp), %eax
	movl	%eax, %edx
	movl	-12(%rbp), %eax
	addl	%edx, %eax
	cltq
	addq	$3, %rax
	leaq	0(,%rax,4), %rdx
	movq	-64(%rbp), %rax
	addq	%rdx, %rax
	movl	(%rax), %eax
	cmpl	%eax, -36(%rbp)
	jl	.L295
	movl	-4(%rbp), %eax
	movslq	%eax, %rdx
	movq	%rdx, %rax
	addq	%rax, %rax
	addq	%rdx, %rax
	salq	$3, %rax
	movq	%rax, %rdx
	movq	-88(%rbp), %rax
	addq	%rdx, %rax
	movl	$0, 8(%rax)
	movl	-4(%rbp), %eax
	movslq	%eax, %rdx
	movq	%rdx, %rax
	addq	%rax, %rax
	addq	%rdx, %rax
	salq	$3, %rax
	movq	%rax, %rdx
	movq	-88(%rbp), %rax
	addq	%rax, %rdx
	movl	-12(%rbp), %eax
	movl	%eax, (%rdx)
	movl	-4(%rbp), %eax
	movslq	%eax, %rdx
	movq	%rdx, %rax
	addq	%rax, %rax
	addq	%rdx, %rax
	salq	$3, %rax
	movq	%rax, %rdx
	movq	-88(%rbp), %rax
	addq	%rax, %rdx
	movl	-8(%rbp), %eax
	movl	%eax, 4(%rdx)
	movl	-8(%rbp), %eax
	subl	$2, %eax
	imull	-80(%rbp), %eax
	movl	%eax, %edx
	movl	-12(%rbp), %eax
	addl	%edx, %eax
	cltq
	leaq	-2(%rax), %rdx
	movq	-56(%rbp), %rax
	addq	%rdx, %rax
	movzbl	(%rax), %eax
	movzbl	%al, %edx
	movl	-8(%rbp), %eax
	subl	$2, %eax
	imull	-80(%rbp), %eax
	movl	%eax, %ecx
	movl	-12(%rbp), %eax
	addl	%ecx, %eax
	cltq
	leaq	-1(%rax), %rcx
	movq	-56(%rbp), %rax
	addq	%rcx, %rax
	movzbl	(%rax), %eax
	movzbl	%al, %eax
	leal	(%rdx,%rax), %ecx
	movl	-8(%rbp), %eax
	subl	$2, %eax
	imull	-80(%rbp), %eax
	movl	%eax, %edx
	movl	-12(%rbp), %eax
	addl	%edx, %eax
	movslq	%eax, %rdx
	movq	-56(%rbp), %rax
	addq	%rdx, %rax
	movzbl	(%rax), %eax
	movzbl	%al, %eax
	addl	%eax, %ecx
	movl	-8(%rbp), %eax
	subl	$2, %eax
	imull	-80(%rbp), %eax
	movl	%eax, %edx
	movl	-12(%rbp), %eax
	addl	%edx, %eax
	cltq
	leaq	1(%rax), %rdx
	movq	-56(%rbp), %rax
	addq	%rdx, %rax
	movzbl	(%rax), %eax
	movzbl	%al, %eax
	addl	%eax, %ecx
	movl	-8(%rbp), %eax
	subl	$2, %eax
	imull	-80(%rbp), %eax
	movl	%eax, %edx
	movl	-12(%rbp), %eax
	addl	%edx, %eax
	cltq
	leaq	2(%rax), %rdx
	movq	-56(%rbp), %rax
	addq	%rdx, %rax
	movzbl	(%rax), %eax
	movzbl	%al, %eax
	addl	%eax, %ecx
	movl	-8(%rbp), %eax
	subl	$1, %eax
	imull	-80(%rbp), %eax
	movl	%eax, %edx
	movl	-12(%rbp), %eax
	addl	%edx, %eax
	cltq
	leaq	-2(%rax), %rdx
	movq	-56(%rbp), %rax
	addq	%rdx, %rax
	movzbl	(%rax), %eax
	movzbl	%al, %eax
	addl	%eax, %ecx
	movl	-8(%rbp), %eax
	subl	$1, %eax
	imull	-80(%rbp), %eax
	movl	%eax, %edx
	movl	-12(%rbp), %eax
	addl	%edx, %eax
	cltq
	leaq	-1(%rax), %rdx
	movq	-56(%rbp), %rax
	addq	%rdx, %rax
	movzbl	(%rax), %eax
	movzbl	%al, %eax
	addl	%eax, %ecx
	movl	-8(%rbp), %eax
	subl	$1, %eax
	imull	-80(%rbp), %eax
	movl	%eax, %edx
	movl	-12(%rbp), %eax
	addl	%edx, %eax
	movslq	%eax, %rdx
	movq	-56(%rbp), %rax
	addq	%rdx, %rax
	movzbl	(%rax), %eax
	movzbl	%al, %eax
	addl	%eax, %ecx
	movl	-8(%rbp), %eax
	subl	$1, %eax
	imull	-80(%rbp), %eax
	movl	%eax, %edx
	movl	-12(%rbp), %eax
	addl	%edx, %eax
	cltq
	leaq	1(%rax), %rdx
	movq	-56(%rbp), %rax
	addq	%rdx, %rax
	movzbl	(%rax), %eax
	movzbl	%al, %eax
	addl	%eax, %ecx
	movl	-8(%rbp), %eax
	subl	$1, %eax
	imull	-80(%rbp), %eax
	movl	%eax, %edx
	movl	-12(%rbp), %eax
	addl	%edx, %eax
	cltq
	leaq	2(%rax), %rdx
	movq	-56(%rbp), %rax
	addq	%rdx, %rax
	movzbl	(%rax), %eax
	movzbl	%al, %eax
	addl	%eax, %ecx
	movl	-8(%rbp), %eax
	imull	-80(%rbp), %eax
	movl	%eax, %edx
	movl	-12(%rbp), %eax
	addl	%edx, %eax
	cltq
	leaq	-2(%rax), %rdx
	movq	-56(%rbp), %rax
	addq	%rdx, %rax
	movzbl	(%rax), %eax
	movzbl	%al, %eax
	addl	%eax, %ecx
	movl	-8(%rbp), %eax
	imull	-80(%rbp), %eax
	movl	%eax, %edx
	movl	-12(%rbp), %eax
	addl	%edx, %eax
	cltq
	leaq	-1(%rax), %rdx
	movq	-56(%rbp), %rax
	addq	%rdx, %rax
	movzbl	(%rax), %eax
	movzbl	%al, %eax
	addl	%eax, %ecx
	movl	-8(%rbp), %eax
	imull	-80(%rbp), %eax
	movl	%eax, %edx
	movl	-12(%rbp), %eax
	addl	%edx, %eax
	movslq	%eax, %rdx
	movq	-56(%rbp), %rax
	addq	%rdx, %rax
	movzbl	(%rax), %eax
	movzbl	%al, %eax
	addl	%eax, %ecx
	movl	-8(%rbp), %eax
	imull	-80(%rbp), %eax
	movl	%eax, %edx
	movl	-12(%rbp), %eax
	addl	%edx, %eax
	cltq
	leaq	1(%rax), %rdx
	movq	-56(%rbp), %rax
	addq	%rdx, %rax
	movzbl	(%rax), %eax
	movzbl	%al, %eax
	addl	%eax, %ecx
	movl	-8(%rbp), %eax
	imull	-80(%rbp), %eax
	movl	%eax, %edx
	movl	-12(%rbp), %eax
	addl	%edx, %eax
	cltq
	leaq	2(%rax), %rdx
	movq	-56(%rbp), %rax
	addq	%rdx, %rax
	movzbl	(%rax), %eax
	movzbl	%al, %eax
	addl	%eax, %ecx
	movl	-8(%rbp), %eax
	addl	$1, %eax
	imull	-80(%rbp), %eax
	movl	%eax, %edx
	movl	-12(%rbp), %eax
	addl	%edx, %eax
	cltq
	leaq	-2(%rax), %rdx
	movq	-56(%rbp), %rax
	addq	%rdx, %rax
	movzbl	(%rax), %eax
	movzbl	%al, %eax
	addl	%eax, %ecx
	movl	-8(%rbp), %eax
	addl	$1, %eax
	imull	-80(%rbp), %eax
	movl	%eax, %edx
	movl	-12(%rbp), %eax
	addl	%edx, %eax
	cltq
	leaq	-1(%rax), %rdx
	movq	-56(%rbp), %rax
	addq	%rdx, %rax
	movzbl	(%rax), %eax
	movzbl	%al, %eax
	addl	%eax, %ecx
	movl	-8(%rbp), %eax
	addl	$1, %eax
	imull	-80(%rbp), %eax
	movl	%eax, %edx
	movl	-12(%rbp), %eax
	addl	%edx, %eax
	movslq	%eax, %rdx
	movq	-56(%rbp), %rax
	addq	%rdx, %rax
	movzbl	(%rax), %eax
	movzbl	%al, %eax
	addl	%eax, %ecx
	movl	-8(%rbp), %eax
	addl	$1, %eax
	imull	-80(%rbp), %eax
	movl	%eax, %edx
	movl	-12(%rbp), %eax
	addl	%edx, %eax
	cltq
	leaq	1(%rax), %rdx
	movq	-56(%rbp), %rax
	addq	%rdx, %rax
	movzbl	(%rax), %eax
	movzbl	%al, %eax
	addl	%eax, %ecx
	movl	-8(%rbp), %eax
	addl	$1, %eax
	imull	-80(%rbp), %eax
	movl	%eax, %edx
	movl	-12(%rbp), %eax
	addl	%edx, %eax
	cltq
	leaq	2(%rax), %rdx
	movq	-56(%rbp), %rax
	addq	%rdx, %rax
	movzbl	(%rax), %eax
	movzbl	%al, %eax
	addl	%eax, %ecx
	movl	-8(%rbp), %eax
	addl	$2, %eax
	imull	-80(%rbp), %eax
	movl	%eax, %edx
	movl	-12(%rbp), %eax
	addl	%edx, %eax
	cltq
	leaq	-2(%rax), %rdx
	movq	-56(%rbp), %rax
	addq	%rdx, %rax
	movzbl	(%rax), %eax
	movzbl	%al, %eax
	addl	%eax, %ecx
	movl	-8(%rbp), %eax
	addl	$2, %eax
	imull	-80(%rbp), %eax
	movl	%eax, %edx
	movl	-12(%rbp), %eax
	addl	%edx, %eax
	cltq
	leaq	-1(%rax), %rdx
	movq	-56(%rbp), %rax
	addq	%rdx, %rax
	movzbl	(%rax), %eax
	movzbl	%al, %eax
	addl	%eax, %ecx
	movl	-8(%rbp), %eax
	addl	$2, %eax
	imull	-80(%rbp), %eax
	movl	%eax, %edx
	movl	-12(%rbp), %eax
	addl	%edx, %eax
	movslq	%eax, %rdx
	movq	-56(%rbp), %rax
	addq	%rdx, %rax
	movzbl	(%rax), %eax
	movzbl	%al, %eax
	addl	%eax, %ecx
	movl	-8(%rbp), %eax
	addl	$2, %eax
	imull	-80(%rbp), %eax
	movl	%eax, %edx
	movl	-12(%rbp), %eax
	addl	%edx, %eax
	cltq
	leaq	1(%rax), %rdx
	movq	-56(%rbp), %rax
	addq	%rdx, %rax
	movzbl	(%rax), %eax
	movzbl	%al, %eax
	addl	%eax, %ecx
	movl	-8(%rbp), %eax
	addl	$2, %eax
	imull	-80(%rbp), %eax
	movl	%eax, %edx
	movl	-12(%rbp), %eax
	addl	%edx, %eax
	cltq
	leaq	2(%rax), %rdx
	movq	-56(%rbp), %rax
	addq	%rdx, %rax
	movzbl	(%rax), %eax
	movzbl	%al, %eax
	addl	%ecx, %eax
	movl	%eax, -36(%rbp)
	movl	-4(%rbp), %eax
	movslq	%eax, %rdx
	movq	%rdx, %rax
	addq	%rax, %rax
	addq	%rdx, %rax
	salq	$3, %rax
	movq	%rax, %rdx
	movq	-88(%rbp), %rax
	leaq	(%rdx,%rax), %rsi
	movl	-36(%rbp), %ecx
	movl	$1374389535, %edx
	movl	%ecx, %eax
	imull	%edx
	sarl	$3, %edx
	movl	%ecx, %eax
	sarl	$31, %eax
	subl	%eax, %edx
	movl	%edx, %eax
	movl	%eax, 20(%rsi)
	movl	-8(%rbp), %eax
	subl	$2, %eax
	imull	-80(%rbp), %eax
	movl	%eax, %edx
	movl	-12(%rbp), %eax
	addl	%edx, %eax
	cltq
	leaq	2(%rax), %rdx
	movq	-56(%rbp), %rax
	addq	%rdx, %rax
	movzbl	(%rax), %eax
	movzbl	%al, %edx
	movl	-8(%rbp), %eax
	subl	$1, %eax
	imull	-80(%rbp), %eax
	movl	%eax, %ecx
	movl	-12(%rbp), %eax
	addl	%ecx, %eax
	cltq
	leaq	2(%rax), %rcx
	movq	-56(%rbp), %rax
	addq	%rcx, %rax
	movzbl	(%rax), %eax
	movzbl	%al, %eax
	leal	(%rdx,%rax), %ecx
	movl	-8(%rbp), %eax
	imull	-80(%rbp), %eax
	movl	%eax, %edx
	movl	-12(%rbp), %eax
	addl	%edx, %eax
	cltq
	leaq	2(%rax), %rdx
	movq	-56(%rbp), %rax
	addq	%rdx, %rax
	movzbl	(%rax), %eax
	movzbl	%al, %eax
	addl	%eax, %ecx
	movl	-8(%rbp), %eax
	addl	$1, %eax
	imull	-80(%rbp), %eax
	movl	%eax, %edx
	movl	-12(%rbp), %eax
	addl	%edx, %eax
	cltq
	leaq	2(%rax), %rdx
	movq	-56(%rbp), %rax
	addq	%rdx, %rax
	movzbl	(%rax), %eax
	movzbl	%al, %eax
	addl	%eax, %ecx
	movl	-8(%rbp), %eax
	addl	$2, %eax
	imull	-80(%rbp), %eax
	movl	%eax, %edx
	movl	-12(%rbp), %eax
	addl	%edx, %eax
	cltq
	leaq	2(%rax), %rdx
	movq	-56(%rbp), %rax
	addq	%rdx, %rax
	movzbl	(%rax), %eax
	movzbl	%al, %eax
	leal	(%rcx,%rax), %esi
	movl	-8(%rbp), %eax
	subl	$2, %eax
	imull	-80(%rbp), %eax
	movl	%eax, %edx
	movl	-12(%rbp), %eax
	addl	%edx, %eax
	cltq
	leaq	-2(%rax), %rdx
	movq	-56(%rbp), %rax
	addq	%rdx, %rax
	movzbl	(%rax), %eax
	movzbl	%al, %edx
	movl	-8(%rbp), %eax
	subl	$1, %eax
	imull	-80(%rbp), %eax
	movl	%eax, %ecx
	movl	-12(%rbp), %eax
	addl	%ecx, %eax
	cltq
	leaq	-2(%rax), %rcx
	movq	-56(%rbp), %rax
	addq	%rcx, %rax
	movzbl	(%rax), %eax
	movzbl	%al, %eax
	leal	(%rdx,%rax), %ecx
	movl	-8(%rbp), %eax
	imull	-80(%rbp), %eax
	movl	%eax, %edx
	movl	-12(%rbp), %eax
	addl	%edx, %eax
	cltq
	leaq	-2(%rax), %rdx
	movq	-56(%rbp), %rax
	addq	%rdx, %rax
	movzbl	(%rax), %eax
	movzbl	%al, %eax
	addl	%eax, %ecx
	movl	-8(%rbp), %eax
	addl	$1, %eax
	imull	-80(%rbp), %eax
	movl	%eax, %edx
	movl	-12(%rbp), %eax
	addl	%edx, %eax
	cltq
	leaq	-2(%rax), %rdx
	movq	-56(%rbp), %rax
	addq	%rdx, %rax
	movzbl	(%rax), %eax
	movzbl	%al, %eax
	addl	%eax, %ecx
	movl	-8(%rbp), %eax
	addl	$2, %eax
	imull	-80(%rbp), %eax
	movl	%eax, %edx
	movl	-12(%rbp), %eax
	addl	%edx, %eax
	cltq
	leaq	-2(%rax), %rdx
	movq	-56(%rbp), %rax
	addq	%rdx, %rax
	movzbl	(%rax), %eax
	movzbl	%al, %eax
	addl	%ecx, %eax
	subl	%eax, %esi
	movl	%esi, %eax
	movl	%eax, -36(%rbp)
	movl	-8(%rbp), %eax
	subl	$2, %eax
	imull	-80(%rbp), %eax
	movl	%eax, %edx
	movl	-12(%rbp), %eax
	addl	%edx, %eax
	cltq
	leaq	1(%rax), %rdx
	movq	-56(%rbp), %rax
	addq	%rdx, %rax
	movzbl	(%rax), %eax
	movzbl	%al, %edx
	movl	-36(%rbp), %eax
	leal	(%rdx,%rax), %ecx
	movl	-8(%rbp), %eax
	subl	$1, %eax
	imull	-80(%rbp), %eax
	movl	%eax, %edx
	movl	-12(%rbp), %eax
	addl	%edx, %eax
	cltq
	leaq	1(%rax), %rdx
	movq	-56(%rbp), %rax
	addq	%rdx, %rax
	movzbl	(%rax), %eax
	movzbl	%al, %eax
	addl	%eax, %ecx
	movl	-8(%rbp), %eax
	imull	-80(%rbp), %eax
	movl	%eax, %edx
	movl	-12(%rbp), %eax
	addl	%edx, %eax
	cltq
	leaq	1(%rax), %rdx
	movq	-56(%rbp), %rax
	addq	%rdx, %rax
	movzbl	(%rax), %eax
	movzbl	%al, %eax
	addl	%eax, %ecx
	movl	-8(%rbp), %eax
	addl	$1, %eax
	imull	-80(%rbp), %eax
	movl	%eax, %edx
	movl	-12(%rbp), %eax
	addl	%edx, %eax
	cltq
	leaq	1(%rax), %rdx
	movq	-56(%rbp), %rax
	addq	%rdx, %rax
	movzbl	(%rax), %eax
	movzbl	%al, %eax
	addl	%eax, %ecx
	movl	-8(%rbp), %eax
	addl	$2, %eax
	imull	-80(%rbp), %eax
	movl	%eax, %edx
	movl	-12(%rbp), %eax
	addl	%edx, %eax
	cltq
	leaq	1(%rax), %rdx
	movq	-56(%rbp), %rax
	addq	%rdx, %rax
	movzbl	(%rax), %eax
	movzbl	%al, %eax
	leal	(%rcx,%rax), %esi
	movl	-8(%rbp), %eax
	subl	$2, %eax
	imull	-80(%rbp), %eax
	movl	%eax, %edx
	movl	-12(%rbp), %eax
	addl	%edx, %eax
	cltq
	leaq	-1(%rax), %rdx
	movq	-56(%rbp), %rax
	addq	%rdx, %rax
	movzbl	(%rax), %eax
	movzbl	%al, %edx
	movl	-8(%rbp), %eax
	subl	$1, %eax
	imull	-80(%rbp), %eax
	movl	%eax, %ecx
	movl	-12(%rbp), %eax
	addl	%ecx, %eax
	cltq
	leaq	-1(%rax), %rcx
	movq	-56(%rbp), %rax
	addq	%rcx, %rax
	movzbl	(%rax), %eax
	movzbl	%al, %eax
	leal	(%rdx,%rax), %ecx
	movl	-8(%rbp), %eax
	imull	-80(%rbp), %eax
	movl	%eax, %edx
	movl	-12(%rbp), %eax
	addl	%edx, %eax
	cltq
	leaq	-1(%rax), %rdx
	movq	-56(%rbp), %rax
	addq	%rdx, %rax
	movzbl	(%rax), %eax
	movzbl	%al, %eax
	addl	%eax, %ecx
	movl	-8(%rbp), %eax
	addl	$1, %eax
	imull	-80(%rbp), %eax
	movl	%eax, %edx
	movl	-12(%rbp), %eax
	addl	%edx, %eax
	cltq
	leaq	-1(%rax), %rdx
	movq	-56(%rbp), %rax
	addq	%rdx, %rax
	movzbl	(%rax), %eax
	movzbl	%al, %eax
	addl	%eax, %ecx
	movl	-8(%rbp), %eax
	addl	$2, %eax
	imull	-80(%rbp), %eax
	movl	%eax, %edx
	movl	-12(%rbp), %eax
	addl	%edx, %eax
	cltq
	leaq	-1(%rax), %rdx
	movq	-56(%rbp), %rax
	addq	%rdx, %rax
	movzbl	(%rax), %eax
	movzbl	%al, %eax
	addl	%ecx, %eax
	subl	%eax, %esi
	movl	%esi, %eax
	addl	%eax, -36(%rbp)
	movl	-8(%rbp), %eax
	addl	$2, %eax
	imull	-80(%rbp), %eax
	movl	%eax, %edx
	movl	-12(%rbp), %eax
	addl	%edx, %eax
	cltq
	leaq	-2(%rax), %rdx
	movq	-56(%rbp), %rax
	addq	%rdx, %rax
	movzbl	(%rax), %eax
	movzbl	%al, %edx
	movl	-8(%rbp), %eax
	addl	$2, %eax
	imull	-80(%rbp), %eax
	movl	%eax, %ecx
	movl	-12(%rbp), %eax
	addl	%ecx, %eax
	cltq
	leaq	-1(%rax), %rcx
	movq	-56(%rbp), %rax
	addq	%rcx, %rax
	movzbl	(%rax), %eax
	movzbl	%al, %eax
	leal	(%rdx,%rax), %ecx
	movl	-8(%rbp), %eax
	addl	$2, %eax
	imull	-80(%rbp), %eax
	movl	%eax, %edx
	movl	-12(%rbp), %eax
	addl	%edx, %eax
	movslq	%eax, %rdx
	movq	-56(%rbp), %rax
	addq	%rdx, %rax
	movzbl	(%rax), %eax
	movzbl	%al, %eax
	addl	%eax, %ecx
	movl	-8(%rbp), %eax
	addl	$2, %eax
	imull	-80(%rbp), %eax
	movl	%eax, %edx
	movl	-12(%rbp), %eax
	addl	%edx, %eax
	cltq
	leaq	1(%rax), %rdx
	movq	-56(%rbp), %rax
	addq	%rdx, %rax
	movzbl	(%rax), %eax
	movzbl	%al, %eax
	addl	%eax, %ecx
	movl	-8(%rbp), %eax
	addl	$2, %eax
	imull	-80(%rbp), %eax
	movl	%eax, %edx
	movl	-12(%rbp), %eax
	addl	%edx, %eax
	cltq
	leaq	2(%rax), %rdx
	movq	-56(%rbp), %rax
	addq	%rdx, %rax
	movzbl	(%rax), %eax
	movzbl	%al, %eax
	leal	(%rcx,%rax), %esi
	movl	-8(%rbp), %eax
	subl	$2, %eax
	imull	-80(%rbp), %eax
	movl	%eax, %edx
	movl	-12(%rbp), %eax
	addl	%edx, %eax
	cltq
	leaq	-2(%rax), %rdx
	movq	-56(%rbp), %rax
	addq	%rdx, %rax
	movzbl	(%rax), %eax
	movzbl	%al, %edx
	movl	-8(%rbp), %eax
	subl	$2, %eax
	imull	-80(%rbp), %eax
	movl	%eax, %ecx
	movl	-12(%rbp), %eax
	addl	%ecx, %eax
	cltq
	leaq	-1(%rax), %rcx
	movq	-56(%rbp), %rax
	addq	%rcx, %rax
	movzbl	(%rax), %eax
	movzbl	%al, %eax
	leal	(%rdx,%rax), %ecx
	movl	-8(%rbp), %eax
	subl	$2, %eax
	imull	-80(%rbp), %eax
	movl	%eax, %edx
	movl	-12(%rbp), %eax
	addl	%edx, %eax
	movslq	%eax, %rdx
	movq	-56(%rbp), %rax
	addq	%rdx, %rax
	movzbl	(%rax), %eax
	movzbl	%al, %eax
	addl	%eax, %ecx
	movl	-8(%rbp), %eax
	subl	$2, %eax
	imull	-80(%rbp), %eax
	movl	%eax, %edx
	movl	-12(%rbp), %eax
	addl	%edx, %eax
	cltq
	leaq	1(%rax), %rdx
	movq	-56(%rbp), %rax
	addq	%rdx, %rax
	movzbl	(%rax), %eax
	movzbl	%al, %eax
	addl	%eax, %ecx
	movl	-8(%rbp), %eax
	subl	$2, %eax
	imull	-80(%rbp), %eax
	movl	%eax, %edx
	movl	-12(%rbp), %eax
	addl	%edx, %eax
	cltq
	leaq	2(%rax), %rdx
	movq	-56(%rbp), %rax
	addq	%rdx, %rax
	movzbl	(%rax), %eax
	movzbl	%al, %eax
	addl	%ecx, %eax
	subl	%eax, %esi
	movl	%esi, %eax
	movl	%eax, -40(%rbp)
	movl	-8(%rbp), %eax
	addl	$1, %eax
	imull	-80(%rbp), %eax
	movl	%eax, %edx
	movl	-12(%rbp), %eax
	addl	%edx, %eax
	cltq
	leaq	-2(%rax), %rdx
	movq	-56(%rbp), %rax
	addq	%rdx, %rax
	movzbl	(%rax), %eax
	movzbl	%al, %edx
	movl	-40(%rbp), %eax
	leal	(%rdx,%rax), %ecx
	movl	-8(%rbp), %eax
	addl	$1, %eax
	imull	-80(%rbp), %eax
	movl	%eax, %edx
	movl	-12(%rbp), %eax
	addl	%edx, %eax
	cltq
	leaq	-1(%rax), %rdx
	movq	-56(%rbp), %rax
	addq	%rdx, %rax
	movzbl	(%rax), %eax
	movzbl	%al, %eax
	addl	%eax, %ecx
	movl	-8(%rbp), %eax
	addl	$1, %eax
	imull	-80(%rbp), %eax
	movl	%eax, %edx
	movl	-12(%rbp), %eax
	addl	%edx, %eax
	movslq	%eax, %rdx
	movq	-56(%rbp), %rax
	addq	%rdx, %rax
	movzbl	(%rax), %eax
	movzbl	%al, %eax
	addl	%eax, %ecx
	movl	-8(%rbp), %eax
	addl	$1, %eax
	imull	-80(%rbp), %eax
	movl	%eax, %edx
	movl	-12(%rbp), %eax
	addl	%edx, %eax
	cltq
	leaq	1(%rax), %rdx
	movq	-56(%rbp), %rax
	addq	%rdx, %rax
	movzbl	(%rax), %eax
	movzbl	%al, %eax
	addl	%eax, %ecx
	movl	-8(%rbp), %eax
	addl	$1, %eax
	imull	-80(%rbp), %eax
	movl	%eax, %edx
	movl	-12(%rbp), %eax
	addl	%edx, %eax
	cltq
	leaq	2(%rax), %rdx
	movq	-56(%rbp), %rax
	addq	%rdx, %rax
	movzbl	(%rax), %eax
	movzbl	%al, %eax
	leal	(%rcx,%rax), %esi
	movl	-8(%rbp), %eax
	subl	$1, %eax
	imull	-80(%rbp), %eax
	movl	%eax, %edx
	movl	-12(%rbp), %eax
	addl	%edx, %eax
	cltq
	leaq	-2(%rax), %rdx
	movq	-56(%rbp), %rax
	addq	%rdx, %rax
	movzbl	(%rax), %eax
	movzbl	%al, %edx
	movl	-8(%rbp), %eax
	subl	$1, %eax
	imull	-80(%rbp), %eax
	movl	%eax, %ecx
	movl	-12(%rbp), %eax
	addl	%ecx, %eax
	cltq
	leaq	-1(%rax), %rcx
	movq	-56(%rbp), %rax
	addq	%rcx, %rax
	movzbl	(%rax), %eax
	movzbl	%al, %eax
	leal	(%rdx,%rax), %ecx
	movl	-8(%rbp), %eax
	subl	$1, %eax
	imull	-80(%rbp), %eax
	movl	%eax, %edx
	movl	-12(%rbp), %eax
	addl	%edx, %eax
	movslq	%eax, %rdx
	movq	-56(%rbp), %rax
	addq	%rdx, %rax
	movzbl	(%rax), %eax
	movzbl	%al, %eax
	addl	%eax, %ecx
	movl	-8(%rbp), %eax
	subl	$1, %eax
	imull	-80(%rbp), %eax
	movl	%eax, %edx
	movl	-12(%rbp), %eax
	addl	%edx, %eax
	cltq
	leaq	1(%rax), %rdx
	movq	-56(%rbp), %rax
	addq	%rdx, %rax
	movzbl	(%rax), %eax
	movzbl	%al, %eax
	addl	%eax, %ecx
	movl	-8(%rbp), %eax
	subl	$1, %eax
	imull	-80(%rbp), %eax
	movl	%eax, %edx
	movl	-12(%rbp), %eax
	addl	%edx, %eax
	cltq
	leaq	2(%rax), %rdx
	movq	-56(%rbp), %rax
	addq	%rdx, %rax
	movzbl	(%rax), %eax
	movzbl	%al, %eax
	addl	%ecx, %eax
	subl	%eax, %esi
	movl	%esi, %eax
	addl	%eax, -40(%rbp)
	movl	-4(%rbp), %eax
	movslq	%eax, %rdx
	movq	%rdx, %rax
	addq	%rax, %rax
	addq	%rdx, %rax
	salq	$3, %rax
	movq	%rax, %rdx
	movq	-88(%rbp), %rax
	leaq	(%rdx,%rax), %rsi
	movl	-36(%rbp), %ecx
	movl	$-2004318071, %edx
	movl	%ecx, %eax
	imull	%edx
	leal	(%rdx,%rcx), %eax
	sarl	$3, %eax
	movl	%eax, %edx
	movl	%ecx, %eax
	sarl	$31, %eax
	subl	%eax, %edx
	movl	%edx, %eax
	movl	%eax, 12(%rsi)
	movl	-4(%rbp), %eax
	movslq	%eax, %rdx
	movq	%rdx, %rax
	addq	%rax, %rax
	addq	%rdx, %rax
	salq	$3, %rax
	movq	%rax, %rdx
	movq	-88(%rbp), %rax
	leaq	(%rdx,%rax), %rsi
	movl	-40(%rbp), %ecx
	movl	$-2004318071, %edx
	movl	%ecx, %eax
	imull	%edx
	leal	(%rdx,%rcx), %eax
	sarl	$3, %eax
	movl	%eax, %edx
	movl	%ecx, %eax
	sarl	$31, %eax
	subl	%eax, %edx
	movl	%edx, %eax
	movl	%eax, 16(%rsi)
	addl	$1, -4(%rbp)
	cmpl	$15000, -4(%rbp)
	jne	.L295
	movq	stderr(%rip), %rax
	movq	%rax, %rcx
	movl	$18, %edx
	movl	$1, %esi
	leaq	.LC42(%rip), %rdi
	call	fwrite@PLT
	movl	$1, %edi
	call	exit@PLT
.L295:
	addl	$1, -12(%rbp)
.L294:
	movl	-80(%rbp), %eax
	subl	$7, %eax
	cmpl	%eax, -12(%rbp)
	jl	.L296
	addl	$1, -8(%rbp)
.L293:
	movl	16(%rbp), %eax
	subl	$7, %eax
	cmpl	%eax, -8(%rbp)
	jl	.L297
	movl	-4(%rbp), %eax
	movslq	%eax, %rdx
	movq	%rdx, %rax
	addq	%rax, %rax
	addq	%rdx, %rax
	salq	$3, %rax
	movq	%rax, %rdx
	movq	-88(%rbp), %rax
	addq	%rdx, %rax
	movl	$7, 8(%rax)
	nop
	leave
	.cfi_def_cfa 7, 8
	ret
	.cfi_endproc
.LFE22:
	.size	susan_corners_quick, .-susan_corners_quick
	.section	.rodata
.LC44:
	.string	"No argument following -d"
.LC45:
	.string	"No argument following -t"
	.text
	.globl	main
	.type	main, @function
main:
.LFB23:
	.cfi_startproc
	pushq	%rbp
	.cfi_def_cfa_offset 16
	.cfi_offset 6, -16
	movq	%rsp, %rbp
	.cfi_def_cfa_register 6
	subq	$360208, %rsp
	movl	%edi, -360196(%rbp)
	movq	%rsi, -360208(%rbp)
	movss	.LC43(%rip), %xmm0
	movss	%xmm0, -4(%rbp)
	movl	$3, -8(%rbp)
	movl	$20, -12(%rbp)
	movl	$0, -16(%rbp)
	movl	$1, -20(%rbp)
	movl	$0, -24(%rbp)
	movl	$0, -28(%rbp)
	movl	$0, -32(%rbp)
	movl	$1850, -40(%rbp)
	movl	$2650, -44(%rbp)
	movl	$0, -36(%rbp)
	cmpl	$2, -360196(%rbp)
	jg	.L299
	movl	$0, %eax
	call	usage
.L299:
	movq	-360208(%rbp), %rax
	addq	$8, %rax
	movq	(%rax), %rax
	leaq	-184(%rbp), %rcx
	leaq	-180(%rbp), %rdx
	leaq	-168(%rbp), %rsi
	movq	%rax, %rdi
	movl	$0, %eax
	call	get_image
	jmp	.L300
.L319:
	movl	-8(%rbp), %eax
	cltq
	leaq	0(,%rax,8), %rdx
	movq	-360208(%rbp), %rax
	addq	%rdx, %rax
	movq	(%rax), %rax
	movq	%rax, -56(%rbp)
	movq	-56(%rbp), %rax
	movzbl	(%rax), %eax
	cmpb	$45, %al
	jne	.L301
	addq	$1, -56(%rbp)
	movq	-56(%rbp), %rax
	movzbl	(%rax), %eax
	movsbl	%al, %eax
	subl	$51, %eax
	cmpl	$65, %eax
	ja	.L318
	movl	%eax, %eax
	leaq	0(,%rax,4), %rdx
	leaq	.L304(%rip), %rax
	movl	(%rdx,%rax), %eax
	cltq
	leaq	.L304(%rip), %rdx
	addq	%rdx, %rax
	jmp	*%rax
	.section	.rodata
	.align 4
	.align 4
.L304:
	.long	.L313-.L304
	.long	.L318-.L304
	.long	.L318-.L304
	.long	.L318-.L304
	.long	.L318-.L304
	.long	.L318-.L304
	.long	.L318-.L304
	.long	.L318-.L304
	.long	.L318-.L304
	.long	.L318-.L304
	.long	.L318-.L304
	.long	.L318-.L304
	.long	.L318-.L304
	.long	.L318-.L304
	.long	.L318-.L304
	.long	.L318-.L304
	.long	.L318-.L304
	.long	.L318-.L304
	.long	.L318-.L304
	.long	.L318-.L304
	.long	.L318-.L304
	.long	.L318-.L304
	.long	.L318-.L304
	.long	.L318-.L304
	.long	.L318-.L304
	.long	.L318-.L304
	.long	.L318-.L304
	.long	.L318-.L304
	.long	.L318-.L304
	.long	.L318-.L304
	.long	.L318-.L304
	.long	.L318-.L304
	.long	.L318-.L304
	.long	.L318-.L304
	.long	.L318-.L304
	.long	.L318-.L304
	.long	.L318-.L304
	.long	.L318-.L304
	.long	.L318-.L304
	.long	.L318-.L304
	.long	.L318-.L304
	.long	.L318-.L304
	.long	.L318-.L304
	.long	.L318-.L304
	.long	.L318-.L304
	.long	.L318-.L304
	.long	.L318-.L304
	.long	.L312-.L304
	.long	.L311-.L304
	.long	.L310-.L304
	.long	.L309-.L304
	.long	.L318-.L304
	.long	.L318-.L304
	.long	.L318-.L304
	.long	.L318-.L304
	.long	.L318-.L304
	.long	.L318-.L304
	.long	.L318-.L304
	.long	.L318-.L304
	.long	.L308-.L304
	.long	.L318-.L304
	.long	.L307-.L304
	.long	.L306-.L304
	.long	.L318-.L304
	.long	.L305-.L304
	.long	.L303-.L304
	.text
.L305:
	movl	$0, -36(%rbp)
	jmp	.L318
.L309:
	movl	$1, -36(%rbp)
	jmp	.L318
.L311:
	movl	$2, -36(%rbp)
	jmp	.L318
.L307:
	movl	$1, -16(%rbp)
	jmp	.L318
.L308:
	movl	$0, -20(%rbp)
	jmp	.L318
.L312:
	movl	$1, -28(%rbp)
	jmp	.L318
.L313:
	movl	$1, -24(%rbp)
	jmp	.L318
.L306:
	movl	$1, -32(%rbp)
	jmp	.L318
.L310:
	addl	$1, -8(%rbp)
	movl	-8(%rbp), %eax
	cmpl	-360196(%rbp), %eax
	jl	.L314
	leaq	.LC44(%rip), %rdi
	call	puts@PLT
	movl	$0, %edi
	call	exit@PLT
.L314:
	movl	-8(%rbp), %eax
	cltq
	leaq	0(,%rax,8), %rdx
	movq	-360208(%rbp), %rax
	addq	%rdx, %rax
	movq	(%rax), %rax
	movq	%rax, %rdi
	call	atof@PLT
	cvtsd2ss	%xmm0, %xmm1
	movss	%xmm1, -4(%rbp)
	pxor	%xmm0, %xmm0
	comiss	-4(%rbp), %xmm0
	ja	.L336
	jmp	.L318
.L336:
	movl	$1, -24(%rbp)
	jmp	.L318
.L303:
	addl	$1, -8(%rbp)
	movl	-8(%rbp), %eax
	cmpl	-360196(%rbp), %eax
	jl	.L317
	leaq	.LC45(%rip), %rdi
	call	puts@PLT
	movl	$0, %edi
	call	exit@PLT
.L317:
	movl	-8(%rbp), %eax
	cltq
	leaq	0(,%rax,8), %rdx
	movq	-360208(%rbp), %rax
	addq	%rdx, %rax
	movq	(%rax), %rax
	movq	%rax, %rdi
	call	atoi@PLT
	movl	%eax, -12(%rbp)
	nop
	jmp	.L318
.L301:
	movl	$0, %eax
	call	usage
.L318:
	addl	$1, -8(%rbp)
.L300:
	movl	-8(%rbp), %eax
	cmpl	-360196(%rbp), %eax
	jl	.L319
	cmpl	$1, -16(%rbp)
	jne	.L320
	cmpl	$0, -36(%rbp)
	jne	.L320
	movl	$1, -36(%rbp)
.L320:
	cmpl	$1, -36(%rbp)
	je	.L321
	cmpl	$2, -36(%rbp)
	je	.L322
	cmpl	$0, -36(%rbp)
	jne	.L323
	movl	-12(%rbp), %ecx
	leaq	-176(%rbp), %rax
	movl	$2, %edx
	movl	%ecx, %esi
	movq	%rax, %rdi
	movl	$0, %eax
	call	setup_brightness_lut
	movq	-176(%rbp), %rdi
	movl	-184(%rbp), %ecx
	movl	-180(%rbp), %edx
	cvtss2sd	-4(%rbp), %xmm0
	movq	-168(%rbp), %rsi
	movl	-24(%rbp), %eax
	movq	%rdi, %r8
	movl	%eax, %edi
	movl	$1, %eax
	call	susan_smoothing
	jmp	.L323
.L321:
	movl	-180(%rbp), %edx
	movl	-184(%rbp), %eax
	imull	%edx, %eax
	cltq
	salq	$2, %rax
	movq	%rax, %rdi
	call	malloc@PLT
	movq	%rax, -64(%rbp)
	movl	-12(%rbp), %ecx
	leaq	-176(%rbp), %rax
	movl	$6, %edx
	movl	%ecx, %esi
	movq	%rax, %rdi
	movl	$0, %eax
	call	setup_brightness_lut
	cmpl	$0, -16(%rbp)
	je	.L324
	cmpl	$0, -24(%rbp)
	je	.L325
	movl	-184(%rbp), %r8d
	movl	-180(%rbp), %edi
	movq	-176(%rbp), %rdx
	movq	-168(%rbp), %rax
	movl	-44(%rbp), %ecx
	movq	-64(%rbp), %rsi
	movl	%r8d, %r9d
	movl	%edi, %r8d
	movq	%rax, %rdi
	movl	$0, %eax
	call	susan_principle_small
	jmp	.L326
.L325:
	movl	-184(%rbp), %r8d
	movl	-180(%rbp), %edi
	movq	-176(%rbp), %rdx
	movq	-168(%rbp), %rax
	movl	-44(%rbp), %ecx
	movq	-64(%rbp), %rsi
	movl	%r8d, %r9d
	movl	%edi, %r8d
	movq	%rax, %rdi
	movl	$0, %eax
	call	susan_principle
.L326:
	movl	-180(%rbp), %edx
	movl	-184(%rbp), %eax
	imull	%eax, %edx
	movq	-168(%rbp), %rcx
	movq	-64(%rbp), %rax
	movq	%rcx, %rsi
	movq	%rax, %rdi
	movl	$0, %eax
	call	int_to_uchar
	jmp	.L323
.L324:
	movl	-180(%rbp), %edx
	movl	-184(%rbp), %eax
	imull	%edx, %eax
	cltq
	movq	%rax, %rdi
	call	malloc@PLT
	movq	%rax, -72(%rbp)
	movl	-180(%rbp), %edx
	movl	-184(%rbp), %eax
	imull	%edx, %eax
	movslq	%eax, %rdx
	movq	-72(%rbp), %rax
	movl	$100, %esi
	movq	%rax, %rdi
	call	memset@PLT
	cmpl	$0, -24(%rbp)
	je	.L328
	movl	-184(%rbp), %edi
	movl	-180(%rbp), %r9d
	movq	-176(%rbp), %rcx
	movq	-168(%rbp), %rax
	movl	-44(%rbp), %r8d
	movq	-72(%rbp), %rdx
	movq	-64(%rbp), %rsi
	subq	$8, %rsp
	pushq	%rdi
	movq	%rax, %rdi
	movl	$0, %eax
	call	susan_edges_small
	addq	$16, %rsp
	jmp	.L329
.L328:
	movl	-184(%rbp), %edi
	movl	-180(%rbp), %r9d
	movq	-176(%rbp), %rcx
	movq	-168(%rbp), %rax
	movl	-44(%rbp), %r8d
	movq	-72(%rbp), %rdx
	movq	-64(%rbp), %rsi
	subq	$8, %rsp
	pushq	%rdi
	movq	%rax, %rdi
	movl	$0, %eax
	call	susan_edges
	addq	$16, %rsp
.L329:
	cmpl	$0, -20(%rbp)
	je	.L330
	movl	-184(%rbp), %ecx
	movl	-180(%rbp), %edx
	movq	-72(%rbp), %rsi
	movq	-64(%rbp), %rax
	movq	%rax, %rdi
	movl	$0, %eax
	call	susan_thin
.L330:
	movl	-184(%rbp), %ecx
	movl	-180(%rbp), %edx
	movq	-168(%rbp), %rax
	movl	-28(%rbp), %edi
	movq	-72(%rbp), %rsi
	movl	%edi, %r8d
	movq	%rax, %rdi
	movl	$0, %eax
	call	edge_draw
	jmp	.L323
.L322:
	movl	-180(%rbp), %edx
	movl	-184(%rbp), %eax
	imull	%edx, %eax
	cltq
	salq	$2, %rax
	movq	%rax, %rdi
	call	malloc@PLT
	movq	%rax, -64(%rbp)
	movl	-12(%rbp), %ecx
	leaq	-176(%rbp), %rax
	movl	$6, %edx
	movl	%ecx, %esi
	movq	%rax, %rdi
	movl	$0, %eax
	call	setup_brightness_lut
	cmpl	$0, -16(%rbp)
	je	.L331
	movl	-184(%rbp), %r8d
	movl	-180(%rbp), %edi
	movq	-176(%rbp), %rdx
	movq	-168(%rbp), %rax
	movl	-40(%rbp), %ecx
	movq	-64(%rbp), %rsi
	movl	%r8d, %r9d
	movl	%edi, %r8d
	movq	%rax, %rdi
	movl	$0, %eax
	call	susan_principle
	movl	-180(%rbp), %edx
	movl	-184(%rbp), %eax
	imull	%eax, %edx
	movq	-168(%rbp), %rcx
	movq	-64(%rbp), %rax
	movq	%rcx, %rsi
	movq	%rax, %rdi
	movl	$0, %eax
	call	int_to_uchar
	jmp	.L337
.L331:
	cmpl	$0, -32(%rbp)
	je	.L333
	movl	-184(%rbp), %edi
	movl	-180(%rbp), %r9d
	movq	-176(%rbp), %rdx
	movq	-168(%rbp), %rax
	leaq	-360192(%rbp), %r8
	movl	-40(%rbp), %ecx
	movq	-64(%rbp), %rsi
	subq	$8, %rsp
	pushq	%rdi
	movq	%rax, %rdi
	movl	$0, %eax
	call	susan_corners_quick
	addq	$16, %rsp
	jmp	.L334
.L333:
	movl	-184(%rbp), %edi
	movl	-180(%rbp), %r9d
	movq	-176(%rbp), %rdx
	movq	-168(%rbp), %rax
	leaq	-360192(%rbp), %r8
	movl	-40(%rbp), %ecx
	movq	-64(%rbp), %rsi
	subq	$8, %rsp
	pushq	%rdi
	movq	%rax, %rdi
	movl	$0, %eax
	call	susan_corners
	addq	$16, %rsp
.L334:
	movl	-180(%rbp), %edx
	movq	-168(%rbp), %rax
	movl	-28(%rbp), %ecx
	leaq	-360192(%rbp), %rsi
	movq	%rax, %rdi
	movl	$0, %eax
	call	corner_draw
.L337:
	nop
.L323:
	movl	-184(%rbp), %ecx
	movl	-180(%rbp), %edx
	movq	-168(%rbp), %rsi
	movq	-360208(%rbp), %rax
	addq	$16, %rax
	movq	(%rax), %rax
	movq	%rax, %rdi
	movl	$0, %eax
	call	put_image
	movl	$0, %eax
	leave
	.cfi_def_cfa 7, 8
	ret
	.cfi_endproc
.LFE23:
	.size	main, .-main
	.section	.rodata
	.align 16
.LC25:
	.long	2147483648
	.long	0
	.long	0
	.long	0
	.align 8
.LC26:
	.long	0
	.long	1079574528
	.align 8
.LC27:
	.long	0
	.long	1073217536
	.align 4
.LC28:
	.long	1097859072
	.align 8
.LC33:
	.long	1717986918
	.long	1072064102
	.align 8
.LC34:
	.long	3435973837
	.long	1072483532
	.align 4
.LC35:
	.long	1232348160
	.align 4
.LC37:
	.long	1056964608
	.align 4
.LC38:
	.long	1073741824
	.align 8
.LC39:
	.long	2576980378
	.long	1071225241
	.align 8
.LC40:
	.long	0
	.long	1071644672
	.align 4
.LC41:
	.long	1077936128
	.align 4
.LC43:
	.long	1082130432
	.ident	"GCC: (Debian 8.1.0-12) 8.1.0"
	.section	.note.GNU-stack,"",@progbits
